; Listing generated by Microsoft (R) Optimizing Compiler Version 19.29.30153.0 

include listing.inc

INCLUDELIB OLDNAMES

EXTRN	longest_match:PROC
EXTRN	match_init:PROC
?my_version@?1??deflateInit2_@@9@9 DB '1.2.11', 00H	; `deflateInit2_'::`2'::my_version
	ORG $+9
configuration_table DW 00H
	DW	00H
	DW	00H
	DW	00H
	DQ	FLAT:deflate_stored
	DW	04H
	DW	04H
	DW	08H
	DW	04H
	DQ	FLAT:deflate_fast
	DW	04H
	DW	05H
	DW	010H
	DW	08H
	DQ	FLAT:deflate_fast
	DW	04H
	DW	06H
	DW	020H
	DW	020H
	DQ	FLAT:deflate_fast
	DW	04H
	DW	04H
	DW	010H
	DW	010H
	DQ	FLAT:deflate_slow
	DW	08H
	DW	010H
	DW	020H
	DW	020H
	DQ	FLAT:deflate_slow
	DW	08H
	DW	010H
	DW	080H
	DW	080H
	DQ	FLAT:deflate_slow
	DW	08H
	DW	020H
	DW	080H
	DW	0100H
	DQ	FLAT:deflate_slow
	DW	020H
	DW	080H
	DW	0102H
	DW	0400H
	DQ	FLAT:deflate_slow
	DW	020H
	DW	0102H
	DW	0102H
	DW	01000H
	DQ	FLAT:deflate_slow
PUBLIC	deflateCopy
PUBLIC	deflateBound
PUBLIC	deflateTune
PUBLIC	deflateParams
PUBLIC	deflatePrime
PUBLIC	deflatePending
PUBLIC	deflateSetHeader
PUBLIC	deflateReset
PUBLIC	deflateResetKeep
PUBLIC	deflateGetDictionary
PUBLIC	deflateSetDictionary
PUBLIC	deflateInit2_
PUBLIC	deflateInit_
PUBLIC	deflateEnd
PUBLIC	deflate
;	COMDAT pdata
pdata	SEGMENT
$pdata$deflate_huff DD imagerel deflate_huff
	DD	imagerel deflate_huff+456
	DD	imagerel $unwind$deflate_huff
pdata	ENDS
;	COMDAT pdata
pdata	SEGMENT
$pdata$deflate_rle DD imagerel deflate_rle
	DD	imagerel deflate_rle+787
	DD	imagerel $unwind$deflate_rle
pdata	ENDS
;	COMDAT pdata
pdata	SEGMENT
$pdata$deflate_slow DD imagerel deflate_slow
	DD	imagerel deflate_slow+1297
	DD	imagerel $unwind$deflate_slow
pdata	ENDS
;	COMDAT pdata
pdata	SEGMENT
$pdata$deflate_fast DD imagerel deflate_fast
	DD	imagerel deflate_fast+1043
	DD	imagerel $unwind$deflate_fast
pdata	ENDS
;	COMDAT pdata
pdata	SEGMENT
$pdata$deflate_stored DD imagerel deflate_stored
	DD	imagerel deflate_stored+17
	DD	imagerel $unwind$deflate_stored
pdata	ENDS
;	COMDAT pdata
pdata	SEGMENT
$pdata$0$deflate_stored DD imagerel deflate_stored+17
	DD	imagerel deflate_stored+25
	DD	imagerel $chain$0$deflate_stored
pdata	ENDS
;	COMDAT pdata
pdata	SEGMENT
$pdata$3$deflate_stored DD imagerel deflate_stored+25
	DD	imagerel deflate_stored+429
	DD	imagerel $chain$3$deflate_stored
pdata	ENDS
;	COMDAT pdata
pdata	SEGMENT
$pdata$4$deflate_stored DD imagerel deflate_stored+429
	DD	imagerel deflate_stored+632
	DD	imagerel $chain$4$deflate_stored
pdata	ENDS
;	COMDAT pdata
pdata	SEGMENT
$pdata$5$deflate_stored DD imagerel deflate_stored+632
	DD	imagerel deflate_stored+1047
	DD	imagerel $chain$5$deflate_stored
pdata	ENDS
;	COMDAT pdata
pdata	SEGMENT
$pdata$fill_window DD imagerel fill_window
	DD	imagerel fill_window+531
	DD	imagerel $unwind$fill_window
pdata	ENDS
;	COMDAT pdata
pdata	SEGMENT
$pdata$lm_init DD imagerel lm_init
	DD	imagerel lm_init+180
	DD	imagerel $unwind$lm_init
pdata	ENDS
;	COMDAT pdata
pdata	SEGMENT
$pdata$read_buf DD imagerel read_buf
	DD	imagerel read_buf+160
	DD	imagerel $unwind$read_buf
pdata	ENDS
;	COMDAT pdata
pdata	SEGMENT
$pdata$deflateCopy DD imagerel $LN12@deflateCop
	DD	imagerel $LN12@deflateCop+41
	DD	imagerel $unwind$deflateCopy
pdata	ENDS
;	COMDAT pdata
pdata	SEGMENT
$pdata$1$deflateCopy DD imagerel $LN12@deflateCop+41
	DD	imagerel $LN12@deflateCop+148
	DD	imagerel $chain$1$deflateCopy
pdata	ENDS
;	COMDAT pdata
pdata	SEGMENT
$pdata$4$deflateCopy DD imagerel $LN12@deflateCop+148
	DD	imagerel $LN12@deflateCop+500
	DD	imagerel $chain$4$deflateCopy
pdata	ENDS
;	COMDAT pdata
pdata	SEGMENT
$pdata$6$deflateCopy DD imagerel $LN12@deflateCop+500
	DD	imagerel $LN12@deflateCop+515
	DD	imagerel $chain$6$deflateCopy
pdata	ENDS
;	COMDAT pdata
pdata	SEGMENT
$pdata$7$deflateCopy DD imagerel $LN12@deflateCop+515
	DD	imagerel $LN12@deflateCop+526
	DD	imagerel $chain$7$deflateCopy
pdata	ENDS
;	COMDAT pdata
pdata	SEGMENT
$pdata$flush_pending DD imagerel flush_pending
	DD	imagerel flush_pending+105
	DD	imagerel $unwind$flush_pending
pdata	ENDS
;	COMDAT pdata
pdata	SEGMENT
$pdata$deflateBound DD imagerel $LN30@deflateBou
	DD	imagerel $LN30@deflateBou+274
	DD	imagerel $unwind$deflateBound
pdata	ENDS
;	COMDAT pdata
pdata	SEGMENT
$pdata$deflateTune DD imagerel $LN5@deflateTun
	DD	imagerel $LN5@deflateTun+71
	DD	imagerel $unwind$deflateTune
pdata	ENDS
;	COMDAT pdata
pdata	SEGMENT
$pdata$deflateParams DD imagerel $LN18@deflatePar
	DD	imagerel $LN18@deflatePar+359
	DD	imagerel $unwind$deflateParams
pdata	ENDS
;	COMDAT pdata
pdata	SEGMENT
$pdata$deflatePrime DD imagerel $LN16@deflatePri
	DD	imagerel $LN16@deflatePri+175
	DD	imagerel $unwind$deflatePrime
pdata	ENDS
;	COMDAT pdata
pdata	SEGMENT
$pdata$deflatePending DD imagerel $LN7@deflatePen
	DD	imagerel $LN7@deflatePen+69
	DD	imagerel $unwind$deflatePending
pdata	ENDS
;	COMDAT pdata
pdata	SEGMENT
$pdata$deflateSetHeader DD imagerel $LN6@deflateSet
	DD	imagerel $LN6@deflateSet+50
	DD	imagerel $unwind$deflateSetHeader
pdata	ENDS
;	COMDAT pdata
pdata	SEGMENT
$pdata$deflateReset DD imagerel $LN6@deflateRes
	DD	imagerel $LN6@deflateRes+46
	DD	imagerel $unwind$deflateReset
pdata	ENDS
;	COMDAT pdata
pdata	SEGMENT
$pdata$deflateResetKeep DD imagerel $LN11@deflateRes
	DD	imagerel $LN11@deflateRes+173
	DD	imagerel $unwind$deflateResetKeep
pdata	ENDS
;	COMDAT pdata
pdata	SEGMENT
$pdata$deflateGetDictionary DD imagerel $LN8@deflateGet
	DD	imagerel $LN8@deflateGet+122
	DD	imagerel $unwind$deflateGetDictionary
pdata	ENDS
;	COMDAT pdata
pdata	SEGMENT
$pdata$deflateSetDictionary DD imagerel $LN29@deflateSet
	DD	imagerel $LN29@deflateSet+89
	DD	imagerel $unwind$deflateSetDictionary
pdata	ENDS
;	COMDAT pdata
pdata	SEGMENT
$pdata$2$deflateSetDictionary DD imagerel $LN29@deflateSet+89
	DD	imagerel $LN29@deflateSet+492
	DD	imagerel $chain$2$deflateSetDictionary
pdata	ENDS
;	COMDAT pdata
pdata	SEGMENT
$pdata$3$deflateSetDictionary DD imagerel $LN29@deflateSet+492
	DD	imagerel $LN29@deflateSet+508
	DD	imagerel $chain$3$deflateSetDictionary
pdata	ENDS
;	COMDAT pdata
pdata	SEGMENT
$pdata$deflateInit2_ DD imagerel $LN24@deflateIni
	DD	imagerel $LN24@deflateIni+73
	DD	imagerel $unwind$deflateInit2_
pdata	ENDS
;	COMDAT pdata
pdata	SEGMENT
$pdata$1$deflateInit2_ DD imagerel $LN24@deflateIni+73
	DD	imagerel $LN24@deflateIni+262
	DD	imagerel $chain$1$deflateInit2_
pdata	ENDS
;	COMDAT pdata
pdata	SEGMENT
$pdata$2$deflateInit2_ DD imagerel $LN24@deflateIni+262
	DD	imagerel $LN24@deflateIni+562
	DD	imagerel $chain$2$deflateInit2_
pdata	ENDS
;	COMDAT pdata
pdata	SEGMENT
$pdata$3$deflateInit2_ DD imagerel $LN24@deflateIni+562
	DD	imagerel $LN24@deflateIni+585
	DD	imagerel $chain$3$deflateInit2_
pdata	ENDS
;	COMDAT pdata
pdata	SEGMENT
$pdata$5$deflateInit2_ DD imagerel $LN24@deflateIni+585
	DD	imagerel $LN24@deflateIni+618
	DD	imagerel $chain$5$deflateInit2_
pdata	ENDS
;	COMDAT pdata
pdata	SEGMENT
$pdata$6$deflateInit2_ DD imagerel $LN24@deflateIni+618
	DD	imagerel $LN24@deflateIni+625
	DD	imagerel $chain$6$deflateInit2_
pdata	ENDS
;	COMDAT pdata
pdata	SEGMENT
$pdata$7$deflateInit2_ DD imagerel $LN24@deflateIni+625
	DD	imagerel $LN24@deflateIni+643
	DD	imagerel $chain$7$deflateInit2_
pdata	ENDS
;	COMDAT pdata
pdata	SEGMENT
$pdata$slide_hash DD imagerel slide_hash
	DD	imagerel slide_hash+117
	DD	imagerel $unwind$slide_hash
pdata	ENDS
;	COMDAT pdata
pdata	SEGMENT
$pdata$deflateInit_ DD imagerel $LN4@deflateIni
	DD	imagerel $LN4@deflateIni+50
	DD	imagerel $unwind$deflateInit_
pdata	ENDS
;	COMDAT pdata
pdata	SEGMENT
$pdata$deflateEnd DD imagerel $LN9@deflateEnd
	DD	imagerel $LN9@deflateEnd+168
	DD	imagerel $unwind$deflateEnd
pdata	ENDS
;	COMDAT pdata
pdata	SEGMENT
$pdata$deflate DD imagerel $LN155@deflate
	DD	imagerel $LN155@deflate+42
	DD	imagerel $unwind$deflate
pdata	ENDS
;	COMDAT pdata
pdata	SEGMENT
$pdata$4$deflate DD imagerel $LN155@deflate+42
	DD	imagerel $LN155@deflate+278
	DD	imagerel $chain$4$deflate
pdata	ENDS
;	COMDAT pdata
pdata	SEGMENT
$pdata$6$deflate DD imagerel $LN155@deflate+278
	DD	imagerel $LN155@deflate+2291
	DD	imagerel $chain$6$deflate
pdata	ENDS
;	COMDAT pdata
pdata	SEGMENT
$pdata$7$deflate DD imagerel $LN155@deflate+2291
	DD	imagerel $LN155@deflate+2320
	DD	imagerel $chain$7$deflate
pdata	ENDS
;	COMDAT pdata
pdata	SEGMENT
$pdata$8$deflate DD imagerel $LN155@deflate+2320
	DD	imagerel $LN155@deflate+2333
	DD	imagerel $chain$8$deflate
;	COMDAT xdata
xdata	SEGMENT
$chain$8$deflate DD 021H
	DD	imagerel $LN155@deflate
	DD	imagerel $LN155@deflate+42
	DD	imagerel $unwind$deflate
xdata	ENDS
;	COMDAT xdata
xdata	SEGMENT
$chain$7$deflate DQ 00008340000020021r		; 1.14078e-308
	DD	imagerel $LN155@deflate
	DD	imagerel $LN155@deflate+42
	DD	imagerel $unwind$deflate
xdata	ENDS
;	COMDAT xdata
xdata	SEGMENT
$chain$6$deflate DQ 00004f400000a0021r		; 6.88817e-309
	DQ	0000a6400000be400r		; 1.44499e-308
	DQ	00008340000095400r		; 1.14078e-308
	DD	imagerel $LN155@deflate
	DD	imagerel $LN155@deflate+42
	DD	imagerel $unwind$deflate
xdata	ENDS
;	COMDAT xdata
xdata	SEGMENT
$chain$4$deflate DQ 00004f44d000a4d21r		; 6.8898e-309
	DQ	0000a6443000be448r		; 1.44514e-308
	DQ	0000834050009543er		; 1.1408e-308
	DD	imagerel $LN155@deflate
	DD	imagerel $LN155@deflate+42
	DD	imagerel $unwind$deflate
xdata	ENDS
;	COMDAT xdata
xdata	SEGMENT
$unwind$deflate DQ 0c004420800030801r		; -2.53224
	DD	07002H
xdata	ENDS
;	COMDAT xdata
xdata	SEGMENT
$unwind$deflateEnd DQ 00006742600042601r	; 8.97498e-309
	DD	030023206H
xdata	ENDS
;	COMDAT xdata
xdata	SEGMENT
$unwind$deflateInit_ DQ 00000820400010401r	; 7.06285e-310
xdata	ENDS
;	COMDAT xdata
xdata	SEGMENT
$unwind$slide_hash DQ 00001340500020501r	; 1.67326e-309
xdata	ENDS
;	COMDAT xdata
xdata	SEGMENT
$chain$7$deflateInit2_ DD 021H
	DD	imagerel $LN24@deflateIni
	DD	imagerel $LN24@deflateIni+73
	DD	imagerel $unwind$deflateInit2_
xdata	ENDS
;	COMDAT xdata
xdata	SEGMENT
$chain$6$deflateInit2_ DQ 0000cd40000040021r	; 1.78397e-308
	DD	0a5400H
	DD	imagerel $LN24@deflateIni
	DD	imagerel $LN24@deflateIni+73
	DD	imagerel $unwind$deflateInit2_
xdata	ENDS
;	COMDAT xdata
xdata	SEGMENT
$chain$5$deflateInit2_ DQ 0000cd40000060021r	; 1.78397e-308
	DQ	0000a5400000b7400r		; 1.4363e-308
	DD	imagerel $LN24@deflateIni
	DD	imagerel $LN24@deflateIni+73
	DD	imagerel $unwind$deflateInit2_
xdata	ENDS
;	COMDAT xdata
xdata	SEGMENT
$chain$3$deflateInit2_ DD 021H
	DD	imagerel $LN24@deflateIni+73
	DD	imagerel $LN24@deflateIni+262
	DD	imagerel $chain$1$deflateInit2_
xdata	ENDS
;	COMDAT xdata
xdata	SEGMENT
$chain$2$deflateInit2_ DQ 0000b740500020521r	; 1.59276e-308
	DD	imagerel $LN24@deflateIni+73
	DD	imagerel $LN24@deflateIni+262
	DD	imagerel $chain$1$deflateInit2_
xdata	ENDS
;	COMDAT xdata
xdata	SEGMENT
$chain$1$deflateInit2_ DQ 0000cd40a00040a21r	; 1.78399e-308
	DD	0a5405H
	DD	imagerel $LN24@deflateIni
	DD	imagerel $LN24@deflateIni+73
	DD	imagerel $unwind$deflateInit2_
xdata	ENDS
;	COMDAT xdata
xdata	SEGMENT
$unwind$deflateInit2_ DQ 0f009320d00060d01r	; -4.88956e+231
	DQ	030026003c005e007r		; 1.98363e-77
xdata	ENDS
;	COMDAT xdata
xdata	SEGMENT
$chain$3$deflateSetDictionary DD 021H
	DD	imagerel $LN29@deflateSet
	DD	imagerel $LN29@deflateSet+89
	DD	imagerel $unwind$deflateSetDictionary
xdata	ENDS
;	COMDAT xdata
xdata	SEGMENT
$chain$2$deflateSetDictionary DQ 0000cf40f00060f21r ; 1.80139e-308
	DQ	0000ac405000bd40ar		; 1.49716e-308
	DD	imagerel $LN29@deflateSet
	DD	imagerel $LN29@deflateSet+89
	DD	imagerel $unwind$deflateSetDictionary
xdata	ENDS
;	COMDAT xdata
xdata	SEGMENT
$unwind$deflateSetDictionary DQ 0e007320b00060b01r ; -3.88751e+154
	DQ	03002500360047005r		; 1.97688e-77
xdata	ENDS
;	COMDAT xdata
xdata	SEGMENT
$unwind$deflateGetDictionary DQ 00006342c00042c01r ; 8.62744e-309
	DD	070023206H
xdata	ENDS
;	COMDAT xdata
xdata	SEGMENT
$unwind$deflateResetKeep DQ 00007643200063201r	; 1.0279e-308
	DQ	07002320600063429r		; 3.53109e+231
xdata	ENDS
;	COMDAT xdata
xdata	SEGMENT
$unwind$deflateReset DQ 00006340a00040a01r	; 8.62672e-309
	DD	07006320aH
xdata	ENDS
;	COMDAT xdata
xdata	SEGMENT
$unwind$deflateSetHeader DQ 00000420400010401r	; 3.58617e-310
xdata	ENDS
;	COMDAT xdata
xdata	SEGMENT
$unwind$deflatePending DQ 00000420400010401r	; 3.58617e-310
xdata	ENDS
;	COMDAT xdata
xdata	SEGMENT
$unwind$deflatePrime DQ 00006340a00040a01r	; 8.62672e-309
	DD	07006320aH
xdata	ENDS
;	COMDAT xdata
xdata	SEGMENT
$unwind$deflateParams DQ 00009741a000a1a01r	; 1.31467e-308
	DQ	00007541a0008641ar		; 1.01916e-308
	DQ	0e016321a0006341ar		; -7.4399e+154
xdata	ENDS
;	COMDAT xdata
xdata	SEGMENT
$unwind$deflateTune DQ 00000420400010401r	; 3.58617e-310
xdata	ENDS
;	COMDAT xdata
xdata	SEGMENT
$unwind$deflateBound DQ 00000420400010401r	; 3.58617e-310
xdata	ENDS
;	COMDAT xdata
xdata	SEGMENT
$unwind$flush_pending DQ 00007640f00060f01r	; 1.02782e-308
	DQ	0700b320f0006340fr		; 5.2777e+231
xdata	ENDS
;	COMDAT xdata
xdata	SEGMENT
$chain$7$deflateCopy DD 021H
	DD	imagerel $LN12@deflateCop
	DD	imagerel $LN12@deflateCop+41
	DD	imagerel $unwind$deflateCopy
xdata	ENDS
;	COMDAT xdata
xdata	SEGMENT
$chain$6$deflateCopy DQ 00008e40000060021r	; 1.23639e-308
	DQ	00006640000077400r		; 8.88726e-309
	DD	imagerel $LN12@deflateCop
	DD	imagerel $LN12@deflateCop+41
	DD	imagerel $unwind$deflateCopy
xdata	ENDS
;	COMDAT xdata
xdata	SEGMENT
$chain$4$deflateCopy DQ 00008e40b00060b21r	; 1.23642e-308
	DQ	00006640000077400r		; 8.88726e-309
	DD	imagerel $LN12@deflateCop
	DD	imagerel $LN12@deflateCop+41
	DD	imagerel $unwind$deflateCopy
xdata	ENDS
;	COMDAT xdata
xdata	SEGMENT
$chain$1$deflateCopy DQ 00007741400041421r	; 1.03653e-308
	DD	066405H
	DD	imagerel $LN12@deflateCop
	DD	imagerel $LN12@deflateCop+41
	DD	imagerel $unwind$deflateCopy
xdata	ENDS
;	COMDAT xdata
xdata	SEGMENT
$unwind$deflateCopy DQ 03002320600020601r	; 1.96423e-77
xdata	ENDS
;	COMDAT xdata
xdata	SEGMENT
$unwind$read_buf DQ 00006544700084701r		; 8.80185e-309
	DQ	00007340f0008640fr		; 1.00175e-308
	DD	0700b320fH
xdata	ENDS
;	COMDAT xdata
xdata	SEGMENT
$unwind$lm_init DQ 00006340a00040a01r		; 8.62672e-309
	DD	07006320aH
xdata	ENDS
;	COMDAT xdata
xdata	SEGMENT
$unwind$fill_window DQ 00007640f00060f01r	; 1.02782e-308
	DQ	0700b320f0006340fr		; 5.2777e+231
xdata	ENDS
;	COMDAT xdata
xdata	SEGMENT
$chain$5$deflate_stored DQ 0000c740000020021r	; 1.73182e-308
	DD	imagerel deflate_stored
	DD	imagerel deflate_stored+17
	DD	imagerel $unwind$deflate_stored
xdata	ENDS
;	COMDAT xdata
xdata	SEGMENT
$chain$4$deflate_stored DQ 0000c740000020021r	; 1.73182e-308
	DD	imagerel deflate_stored+17
	DD	imagerel deflate_stored+25
	DD	imagerel $chain$0$deflate_stored
xdata	ENDS
;	COMDAT xdata
xdata	SEGMENT
$chain$3$deflate_stored DQ 0000c741d00061d21r	; 1.73188e-308
	DQ	00004d405000b5414r		; 6.71444e-309
	DD	imagerel deflate_stored+17
	DD	imagerel deflate_stored+25
	DD	imagerel $chain$0$deflate_stored
xdata	ENDS
;	COMDAT xdata
xdata	SEGMENT
$chain$0$deflate_stored DQ 0000dc40500020521r	; 1.91436e-308
	DD	imagerel deflate_stored
	DD	imagerel deflate_stored+17
	DD	imagerel $unwind$deflate_stored
xdata	ENDS
;	COMDAT xdata
xdata	SEGMENT
$unwind$deflate_stored DQ 0f007420b00050b01r	; -4.51355e+231
	DQ	0000030026003e005r		; 2.60801e-310
xdata	ENDS
;	COMDAT xdata
xdata	SEGMENT
$unwind$deflate_fast DQ 0000c641c000c1c01r	; 1.72319e-308
	DQ	0000a341c000b541cr		; 1.41898e-308
	DQ	0d014e016f018321cr		; -6.043e+77
	DD	07010c012H
xdata	ENDS
;	COMDAT xdata
xdata	SEGMENT
$unwind$deflate_slow DQ 0000c641c000c1c01r	; 1.72319e-308
	DQ	0000a341c000b541cr		; 1.41898e-308
	DQ	0d014e016f018321cr		; -6.043e+77
	DD	07010c012H
xdata	ENDS
;	COMDAT xdata
xdata	SEGMENT
$unwind$deflate_rle DQ 0000a6418000a1801r	; 1.44505e-308
	DQ	00008341800095418r		; 1.14084e-308
	DQ	07010e012f0143218r		; 6.5498e+231
xdata	ENDS
;	COMDAT xdata
xdata	SEGMENT
$unwind$deflate_huff DQ 00007640f00060f01r	; 1.02782e-308
	DQ	0700b320f0006340fr		; 5.2777e+231
END
