; Listing generated by Microsoft (R) Optimizing Compiler Version 19.29.30153.0 

include listing.inc

INCLUDELIB OLDNAMES

PUBLIC	??_C@_02DKCKIIND@?$CFs@				; `string'
PUBLIC	??_C@_07EBNKNFJN@?$DMfd?3?$CFd?$DO@		; `string'
PUBLIC	??_C@_0O@BNNCBLEN@out?5of?5memory@		; `string'
PUBLIC	??_C@_00CNPNBAHC@@				; `string'
PUBLIC	??_C@_02LMMGGCAJ@?3?5@				; `string'
PUBLIC	??_C@_06DIJPEION@?$CFs?$CFs?$CFs@		; `string'
EXTRN	__imp_malloc:PROC
EXTRN	__imp_free:PROC
EXTRN	__imp___stdio_common_vsprintf:PROC
EXTRN	__imp_wcstombs:PROC
EXTRN	__imp_open:PROC
EXTRN	__imp__wopen:PROC
EXTRN	__imp__lseeki64:PROC
;	COMDAT ??_C@_06DIJPEION@?$CFs?$CFs?$CFs@
CONST	SEGMENT
??_C@_06DIJPEION@?$CFs?$CFs?$CFs@ DB '%s%s%s', 00H	; `string'
CONST	ENDS
;	COMDAT ??_C@_02LMMGGCAJ@?3?5@
CONST	SEGMENT
??_C@_02LMMGGCAJ@?3?5@ DB ': ', 00H			; `string'
CONST	ENDS
;	COMDAT ??_C@_00CNPNBAHC@@
CONST	SEGMENT
??_C@_00CNPNBAHC@@ DB 00H				; `string'
CONST	ENDS
;	COMDAT ??_C@_0O@BNNCBLEN@out?5of?5memory@
CONST	SEGMENT
??_C@_0O@BNNCBLEN@out?5of?5memory@ DB 'out of memory', 00H ; `string'
CONST	ENDS
;	COMDAT ??_C@_07EBNKNFJN@?$DMfd?3?$CFd?$DO@
CONST	SEGMENT
??_C@_07EBNKNFJN@?$DMfd?3?$CFd?$DO@ DB '<fd:%d>', 00H	; `string'
CONST	ENDS
;	COMDAT ??_C@_02DKCKIIND@?$CFs@
CONST	SEGMENT
??_C@_02DKCKIIND@?$CFs@ DB '%s', 00H			; `string'
PUBLIC	gz_error
PUBLIC	gzclearerr
PUBLIC	gzerror
PUBLIC	gzeof
PUBLIC	gzoffset
PUBLIC	gzoffset64
PUBLIC	gztell
PUBLIC	gztell64
PUBLIC	gzseek
PUBLIC	gzseek64
PUBLIC	gzrewind
PUBLIC	gzbuffer
PUBLIC	gzopen_w
PUBLIC	gzdopen
PUBLIC	gzopen64
PUBLIC	gzopen
PUBLIC	snprintf
PUBLIC	vsnprintf
PUBLIC	__local_stdio_printf_options
;	COMDAT pdata
pdata	SEGMENT
$pdata$gz_error DD imagerel $LN15@gz_error
	DD	imagerel $LN15@gz_error+253
	DD	imagerel $unwind$gz_error
pdata	ENDS
;	COMDAT pdata
pdata	SEGMENT
$pdata$gzoffset DD imagerel $LN4@gzoffset
	DD	imagerel $LN4@gzoffset+31
	DD	imagerel $unwind$gzoffset
pdata	ENDS
;	COMDAT pdata
pdata	SEGMENT
$pdata$gzoffset64 DD imagerel $LN9@gzoffset64
	DD	imagerel $LN9@gzoffset64+89
	DD	imagerel $unwind$gzoffset64
pdata	ENDS
;	COMDAT pdata
pdata	SEGMENT
$pdata$gztell DD imagerel $LN4@gztell
	DD	imagerel $LN4@gztell+31
	DD	imagerel $unwind$gztell
pdata	ENDS
;	COMDAT pdata
pdata	SEGMENT
$pdata$gzseek DD imagerel $LN4@gzseek
	DD	imagerel $LN4@gzseek+34
	DD	imagerel $unwind$gzseek
pdata	ENDS
;	COMDAT pdata
pdata	SEGMENT
$pdata$gzseek64 DD imagerel $LN27@gzseek64
	DD	imagerel $LN27@gzseek64+344
	DD	imagerel $unwind$gzseek64
pdata	ENDS
;	COMDAT pdata
pdata	SEGMENT
$pdata$gzrewind DD imagerel $LN8@gzrewind
	DD	imagerel $LN8@gzrewind+84
	DD	imagerel $unwind$gzrewind
pdata	ENDS
;	COMDAT pdata
pdata	SEGMENT
$pdata$gzdopen DD imagerel $LN6@gzdopen
	DD	imagerel $LN6@gzdopen+129
	DD	imagerel $unwind$gzdopen
pdata	ENDS
;	COMDAT pdata
pdata	SEGMENT
$pdata$gz_open DD imagerel gz_open
	DD	imagerel gz_open+64
	DD	imagerel $unwind$gz_open
pdata	ENDS
;	COMDAT pdata
pdata	SEGMENT
$pdata$1$gz_open DD imagerel gz_open+64
	DD	imagerel gz_open+620
	DD	imagerel $chain$1$gz_open
pdata	ENDS
;	COMDAT pdata
pdata	SEGMENT
$pdata$3$gz_open DD imagerel gz_open+620
	DD	imagerel gz_open+668
	DD	imagerel $chain$3$gz_open
pdata	ENDS
;	COMDAT pdata
pdata	SEGMENT
$pdata$4$gz_open DD imagerel gz_open+668
	DD	imagerel gz_open+814
	DD	imagerel $chain$4$gz_open
pdata	ENDS
;	COMDAT pdata
pdata	SEGMENT
$pdata$gz_reset DD imagerel gz_reset
	DD	imagerel gz_reset+67
	DD	imagerel $unwind$gz_reset
pdata	ENDS
;	COMDAT pdata
pdata	SEGMENT
$pdata$snprintf DD imagerel $LN6@snprintf
	DD	imagerel $LN6@snprintf+92
	DD	imagerel $unwind$snprintf
pdata	ENDS
;	COMDAT pdata
pdata	SEGMENT
$pdata$vsnprintf DD imagerel $LN4@vsnprintf
	DD	imagerel $LN4@vsnprintf+104
	DD	imagerel $unwind$vsnprintf
;	COMDAT xdata
xdata	SEGMENT
$unwind$vsnprintf DQ 0000a641400081401r		; 1.44504e-308
	DQ	00008341400095414r		; 1.14083e-308
	DD	070105214H
xdata	ENDS
;	COMDAT xdata
xdata	SEGMENT
$unwind$snprintf DQ 0700e621200051201r		; 5.89629e+231
	DQ	00000300b500c600dr		; 2.60991e-310
xdata	ENDS
;	COMDAT xdata
xdata	SEGMENT
$unwind$gz_reset DQ 00006340a00040a01r		; 8.62672e-309
	DD	07006320aH
xdata	ENDS
;	COMDAT xdata
xdata	SEGMENT
$chain$4$gz_open DD 021H
	DD	imagerel gz_open
	DD	imagerel gz_open+64
	DD	imagerel $unwind$gz_open
xdata	ENDS
;	COMDAT xdata
xdata	SEGMENT
$chain$3$gz_open DQ 0000b740000040021r		; 1.59275e-308
	DD	0a5400H
	DD	imagerel gz_open
	DD	imagerel gz_open+64
	DD	imagerel $unwind$gz_open
xdata	ENDS
;	COMDAT xdata
xdata	SEGMENT
$chain$1$gz_open DQ 0000b740a00040a21r		; 1.59277e-308
	DD	0a5405H
	DD	imagerel gz_open
	DD	imagerel gz_open+64
	DD	imagerel $unwind$gz_open
xdata	ENDS
;	COMDAT xdata
xdata	SEGMENT
$unwind$gz_open DQ 0000c341200081201r		; 1.69709e-308
	DQ	0d00ae00cf00e3212r		; -3.88992e+77
	DD	06006c008H
xdata	ENDS
;	COMDAT xdata
xdata	SEGMENT
$unwind$gzdopen DQ 00007640f00060f01r		; 1.02782e-308
	DQ	0700b320f0006340fr		; 5.2777e+231
xdata	ENDS
;	COMDAT xdata
xdata	SEGMENT
$unwind$gzrewind DQ 03002320600020601r		; 1.96423e-77
xdata	ENDS
;	COMDAT xdata
xdata	SEGMENT
$unwind$gzseek64 DQ 00007640f00060f01r		; 1.02782e-308
	DQ	0700b320f0006340fr		; 5.2777e+231
xdata	ENDS
;	COMDAT xdata
xdata	SEGMENT
$unwind$gzseek DQ 00000420400010401r		; 3.58617e-310
xdata	ENDS
;	COMDAT xdata
xdata	SEGMENT
$unwind$gztell DQ 00000420400010401r		; 3.58617e-310
xdata	ENDS
;	COMDAT xdata
xdata	SEGMENT
$unwind$gzoffset64 DQ 03002320600020601r	; 1.96423e-77
xdata	ENDS
;	COMDAT xdata
xdata	SEGMENT
$unwind$gzoffset DQ 00000420400010401r		; 3.58617e-310
xdata	ENDS
;	COMDAT xdata
xdata	SEGMENT
$unwind$gz_error DQ 00009640f00060f01r		; 1.30596e-308
	DQ	0700b520f0008340fr		; 5.30195e+231
END
