; Listing generated by Microsoft (R) Optimizing Compiler Version 19.29.30153.0 

include listing.inc

INCLUDELIB OLDNAMES

PUBLIC	??_C@_0BH@CFIIDOJD@unexpected?5end?5of?5file@	; `string'
PUBLIC	??_C@_0CH@CPOLIEKA@internal?5error?3?5inflate?5stream?5@ ; `string'
PUBLIC	??_C@_0BG@HCKBMIHF@compressed?5data?5error@	; `string'
PUBLIC	??_C@_0BP@HLDABFKK@request?5does?5not?5fit?5in?5an?5int@ ; `string'
PUBLIC	??_C@_0CB@EGGJDMIK@request?5does?5not?5fit?5in?5a?5size_@ ; `string'
PUBLIC	??_C@_0BP@IIKIGMCC@out?5of?5room?5to?5push?5characters@ ; `string'
EXTRN	__imp_close:PROC
EXTRN	__imp_strerror:PROC
EXTRN	__imp__errno:PROC
EXTRN	__imp_read:PROC
;	COMDAT ??_C@_0BP@IIKIGMCC@out?5of?5room?5to?5push?5characters@
CONST	SEGMENT
??_C@_0BP@IIKIGMCC@out?5of?5room?5to?5push?5characters@ DB 'out of room t'
	DB	'o push characters', 00H			; `string'
CONST	ENDS
;	COMDAT ??_C@_0CB@EGGJDMIK@request?5does?5not?5fit?5in?5a?5size_@
CONST	SEGMENT
??_C@_0CB@EGGJDMIK@request?5does?5not?5fit?5in?5a?5size_@ DB 'request doe'
	DB	's not fit in a size_t', 00H			; `string'
CONST	ENDS
;	COMDAT ??_C@_0BP@HLDABFKK@request?5does?5not?5fit?5in?5an?5int@
CONST	SEGMENT
??_C@_0BP@HLDABFKK@request?5does?5not?5fit?5in?5an?5int@ DB 'request does'
	DB	' not fit in an int', 00H			; `string'
CONST	ENDS
;	COMDAT ??_C@_0BG@HCKBMIHF@compressed?5data?5error@
CONST	SEGMENT
??_C@_0BG@HCKBMIHF@compressed?5data?5error@ DB 'compressed data error', 00H ; `string'
CONST	ENDS
;	COMDAT ??_C@_0CH@CPOLIEKA@internal?5error?3?5inflate?5stream?5@
CONST	SEGMENT
??_C@_0CH@CPOLIEKA@internal?5error?3?5inflate?5stream?5@ DB 'internal err'
	DB	'or: inflate stream corrupt', 00H		; `string'
CONST	ENDS
;	COMDAT ??_C@_0BH@CFIIDOJD@unexpected?5end?5of?5file@
CONST	SEGMENT
??_C@_0BH@CFIIDOJD@unexpected?5end?5of?5file@ DB 'unexpected end of file', 00H ; `string'
PUBLIC	gzdirect
PUBLIC	gzgets
PUBLIC	gzungetc
PUBLIC	gzgetc_
PUBLIC	gzgetc
PUBLIC	gzfread
PUBLIC	gzread
PUBLIC	gzclose_r
;	COMDAT pdata
pdata	SEGMENT
$pdata$gzdirect DD imagerel $LN6@gzdirect
	DD	imagerel $LN6@gzdirect+56
	DD	imagerel $unwind$gzdirect
pdata	ENDS
;	COMDAT pdata
pdata	SEGMENT
$pdata$gzgets DD imagerel $LN27@gzgets
	DD	imagerel $LN27@gzgets+310
	DD	imagerel $unwind$gzgets
pdata	ENDS
;	COMDAT pdata
pdata	SEGMENT
$pdata$gzungetc DD imagerel $LN19@gzungetc
	DD	imagerel $LN19@gzungetc+283
	DD	imagerel $unwind$gzungetc
pdata	ENDS
;	COMDAT pdata
pdata	SEGMENT
$pdata$gzgetc DD imagerel $LN10@gzgetc
	DD	imagerel $LN10@gzgetc+114
	DD	imagerel $unwind$gzgetc
pdata	ENDS
;	COMDAT pdata
pdata	SEGMENT
$pdata$gzfread DD imagerel $LN10@gzfread
	DD	imagerel $LN10@gzfread+120
	DD	imagerel $unwind$gzfread
pdata	ENDS
;	COMDAT pdata
pdata	SEGMENT
$pdata$gzread DD imagerel $LN9@gzread
	DD	imagerel $LN9@gzread+103
	DD	imagerel $unwind$gzread
pdata	ENDS
;	COMDAT pdata
pdata	SEGMENT
$pdata$gz_read DD imagerel gz_read
	DD	imagerel gz_read+346
	DD	imagerel $unwind$gz_read
pdata	ENDS
;	COMDAT pdata
pdata	SEGMENT
$pdata$gz_skip DD imagerel gz_skip
	DD	imagerel gz_skip+121
	DD	imagerel $unwind$gz_skip
pdata	ENDS
;	COMDAT pdata
pdata	SEGMENT
$pdata$gz_fetch DD imagerel gz_fetch
	DD	imagerel gz_fetch+169
	DD	imagerel $unwind$gz_fetch
pdata	ENDS
;	COMDAT pdata
pdata	SEGMENT
$pdata$gz_decomp DD imagerel gz_decomp
	DD	imagerel gz_decomp+272
	DD	imagerel $unwind$gz_decomp
pdata	ENDS
;	COMDAT pdata
pdata	SEGMENT
$pdata$gz_look DD imagerel gz_look
	DD	imagerel gz_look+466
	DD	imagerel $unwind$gz_look
pdata	ENDS
;	COMDAT pdata
pdata	SEGMENT
$pdata$gz_avail DD imagerel gz_avail
	DD	imagerel gz_avail+141
	DD	imagerel $unwind$gz_avail
pdata	ENDS
;	COMDAT pdata
pdata	SEGMENT
$pdata$gz_load DD imagerel gz_load
	DD	imagerel gz_load+171
	DD	imagerel $unwind$gz_load
pdata	ENDS
;	COMDAT pdata
pdata	SEGMENT
$pdata$gzclose_r DD imagerel $LN8@gzclose_r
	DD	imagerel $LN8@gzclose_r+35
	DD	imagerel $unwind$gzclose_r
pdata	ENDS
;	COMDAT pdata
pdata	SEGMENT
$pdata$1$gzclose_r DD imagerel $LN8@gzclose_r+35
	DD	imagerel $LN8@gzclose_r+160
	DD	imagerel $chain$1$gzclose_r
pdata	ENDS
;	COMDAT pdata
pdata	SEGMENT
$pdata$2$gzclose_r DD imagerel $LN8@gzclose_r+160
	DD	imagerel $LN8@gzclose_r+171
	DD	imagerel $chain$2$gzclose_r
;	COMDAT xdata
xdata	SEGMENT
$chain$2$gzclose_r DD 021H
	DD	imagerel $LN8@gzclose_r
	DD	imagerel $LN8@gzclose_r+35
	DD	imagerel $unwind$gzclose_r
xdata	ENDS
;	COMDAT xdata
xdata	SEGMENT
$chain$1$gzclose_r DQ 00007740a00040a21r	; 1.03651e-308
	DD	063405H
	DD	imagerel $LN8@gzclose_r
	DD	imagerel $LN8@gzclose_r+35
	DD	imagerel $unwind$gzclose_r
xdata	ENDS
;	COMDAT xdata
xdata	SEGMENT
$unwind$gzclose_r DQ 06002320600020601r		; 3.04951e+154
xdata	ENDS
;	COMDAT xdata
xdata	SEGMENT
$unwind$gz_load DQ 00009741a000a1a01r		; 1.31467e-308
	DQ	00007541a0008641ar		; 1.01916e-308
	DQ	0e016321a0006341ar		; -7.4399e+154
xdata	ENDS
;	COMDAT xdata
xdata	SEGMENT
$unwind$gz_avail DQ 03002320600020601r		; 1.96423e-77
xdata	ENDS
;	COMDAT xdata
xdata	SEGMENT
$unwind$gz_look DQ 00007640f00060f01r		; 1.02782e-308
	DQ	0700b320f0006340fr		; 5.2777e+231
xdata	ENDS
;	COMDAT xdata
xdata	SEGMENT
$unwind$gz_decomp DQ 00008641400081401r		; 1.1669e-308
	DQ	00006341400075414r		; 8.62693e-309
	DD	070103214H
xdata	ENDS
;	COMDAT xdata
xdata	SEGMENT
$unwind$gz_fetch DQ 03002320600020601r		; 1.96423e-77
xdata	ENDS
;	COMDAT xdata
xdata	SEGMENT
$unwind$gz_skip DQ 00006340a00040a01r		; 8.62672e-309
	DD	07006320aH
xdata	ENDS
;	COMDAT xdata
xdata	SEGMENT
$unwind$gz_read DQ 0000d641c000c1c01r		; 1.86226e-308
	DQ	0000a341c000b541cr		; 1.41898e-308
	DQ	0d014e016f018321cr		; -6.043e+77
	DD	07010c012H
xdata	ENDS
;	COMDAT xdata
xdata	SEGMENT
$unwind$gzread DQ 03002320600020601r		; 1.96423e-77
xdata	ENDS
;	COMDAT xdata
xdata	SEGMENT
$unwind$gzfread DQ 03002320600020601r		; 1.96423e-77
xdata	ENDS
;	COMDAT xdata
xdata	SEGMENT
$unwind$gzgetc DQ 00000420400010401r		; 3.58617e-310
xdata	ENDS
;	COMDAT xdata
xdata	SEGMENT
$unwind$gzungetc DQ 00006340a00040a01r		; 8.62672e-309
	DD	07006320aH
xdata	ENDS
;	COMDAT xdata
xdata	SEGMENT
$unwind$gzgets DQ 0000c641c000c1c01r		; 1.72319e-308
	DQ	0000a341c000b541cr		; 1.41898e-308
	DQ	0d014e016f018321cr		; -6.043e+77
	DD	07010c012H
xdata	ENDS
;	COMDAT xdata
xdata	SEGMENT
$unwind$gzdirect DQ 03002320600020601r		; 1.96423e-77
END
