; Listing generated by Microsoft (R) Optimizing Compiler Version 19.29.30153.0 

include listing.inc

INCLUDELIB OLDNAMES

PUBLIC	??_C@_0CH@DEEGAHIB@internal?5error?3?5deflate?5stream?5@ ; `string'
PUBLIC	??_C@_0CF@MLPJFDMM@requested?5length?5does?5not?5fit?5i@ ; `string'
EXTRN	__imp_write:PROC
;	COMDAT ??_C@_0CF@MLPJFDMM@requested?5length?5does?5not?5fit?5i@
CONST	SEGMENT
??_C@_0CF@MLPJFDMM@requested?5length?5does?5not?5fit?5i@ DB 'requested le'
	DB	'ngth does not fit in int', 00H		; `string'
CONST	ENDS
;	COMDAT ??_C@_0CH@DEEGAHIB@internal?5error?3?5deflate?5stream?5@
CONST	SEGMENT
??_C@_0CH@DEEGAHIB@internal?5error?3?5deflate?5stream?5@ DB 'internal err'
	DB	'or: deflate stream corrupt', 00H		; `string'
PUBLIC	gzsetparams
PUBLIC	gzflush
PUBLIC	gzprintf
PUBLIC	gzvprintf
PUBLIC	gzputs
PUBLIC	gzputc
PUBLIC	gzfwrite
PUBLIC	gzwrite
PUBLIC	gzclose_w
;	COMDAT pdata
pdata	SEGMENT
$pdata$gzsetparams DD imagerel $LN16@gzsetparam
	DD	imagerel $LN16@gzsetparam+174
	DD	imagerel $unwind$gzsetparams
pdata	ENDS
;	COMDAT pdata
pdata	SEGMENT
$pdata$gzflush DD imagerel $LN14@gzflush
	DD	imagerel $LN14@gzflush+107
	DD	imagerel $unwind$gzflush
pdata	ENDS
;	COMDAT pdata
pdata	SEGMENT
$pdata$gzprintf DD imagerel $LN4@gzprintf
	DD	imagerel $LN4@gzprintf+34
	DD	imagerel $unwind$gzprintf
pdata	ENDS
;	COMDAT pdata
pdata	SEGMENT
$pdata$gzvprintf DD imagerel $LN23@gzvprintf
	DD	imagerel $LN23@gzvprintf+129
	DD	imagerel $unwind$gzvprintf
pdata	ENDS
;	COMDAT pdata
pdata	SEGMENT
$pdata$1$gzvprintf DD imagerel $LN23@gzvprintf+129
	DD	imagerel $LN23@gzvprintf+328
	DD	imagerel $chain$1$gzvprintf
pdata	ENDS
;	COMDAT pdata
pdata	SEGMENT
$pdata$3$gzvprintf DD imagerel $LN23@gzvprintf+328
	DD	imagerel $LN23@gzvprintf+368
	DD	imagerel $chain$3$gzvprintf
pdata	ENDS
;	COMDAT pdata
pdata	SEGMENT
$pdata$4$gzvprintf DD imagerel $LN23@gzvprintf+368
	DD	imagerel $LN23@gzvprintf+390
	DD	imagerel $chain$4$gzvprintf
pdata	ENDS
;	COMDAT pdata
pdata	SEGMENT
$pdata$gzputs DD imagerel $LN10@gzputs
	DD	imagerel $LN10@gzputs+33
	DD	imagerel $unwind$gzputs
pdata	ENDS
;	COMDAT pdata
pdata	SEGMENT
$pdata$0$gzputs DD imagerel $LN10@gzputs+33
	DD	imagerel $LN10@gzputs+89
	DD	imagerel $chain$0$gzputs
pdata	ENDS
;	COMDAT pdata
pdata	SEGMENT
$pdata$1$gzputs DD imagerel $LN10@gzputs+89
	DD	imagerel $LN10@gzputs+102
	DD	imagerel $chain$1$gzputs
pdata	ENDS
;	COMDAT pdata
pdata	SEGMENT
$pdata$gzputc DD imagerel $LN14@gzputc
	DD	imagerel $LN14@gzputc+205
	DD	imagerel $unwind$gzputc
pdata	ENDS
;	COMDAT pdata
pdata	SEGMENT
$pdata$gzfwrite DD imagerel $LN10@gzfwrite
	DD	imagerel $LN10@gzfwrite+114
	DD	imagerel $unwind$gzfwrite
pdata	ENDS
;	COMDAT pdata
pdata	SEGMENT
$pdata$gzwrite DD imagerel $LN8@gzwrite
	DD	imagerel $LN8@gzwrite+65
	DD	imagerel $unwind$gzwrite
pdata	ENDS
;	COMDAT pdata
pdata	SEGMENT
$pdata$gz_write DD imagerel gz_write
	DD	imagerel gz_write+333
	DD	imagerel $unwind$gz_write
pdata	ENDS
;	COMDAT pdata
pdata	SEGMENT
$pdata$gz_zero DD imagerel gz_zero
	DD	imagerel gz_zero+161
	DD	imagerel $unwind$gz_zero
pdata	ENDS
;	COMDAT pdata
pdata	SEGMENT
$pdata$gz_comp DD imagerel gz_comp
	DD	imagerel gz_comp+441
	DD	imagerel $unwind$gz_comp
pdata	ENDS
;	COMDAT pdata
pdata	SEGMENT
$pdata$gz_init DD imagerel gz_init
	DD	imagerel gz_init+71
	DD	imagerel $unwind$gz_init
pdata	ENDS
;	COMDAT pdata
pdata	SEGMENT
$pdata$0$gz_init DD imagerel gz_init+71
	DD	imagerel gz_init+245
	DD	imagerel $chain$0$gz_init
pdata	ENDS
;	COMDAT pdata
pdata	SEGMENT
$pdata$2$gz_init DD imagerel gz_init+245
	DD	imagerel gz_init+301
	DD	imagerel $chain$2$gz_init
pdata	ENDS
;	COMDAT pdata
pdata	SEGMENT
$pdata$gzclose_w DD imagerel $LN13@gzclose_w
	DD	imagerel $LN13@gzclose_w+204
	DD	imagerel $unwind$gzclose_w
;	COMDAT xdata
xdata	SEGMENT
$unwind$gzclose_w DQ 00006340a00040a01r		; 8.62672e-309
	DD	07006320aH
xdata	ENDS
;	COMDAT xdata
xdata	SEGMENT
$chain$2$gz_init DQ 0000a640000020021r		; 1.44499e-308
	DD	imagerel gz_init
	DD	imagerel gz_init+71
	DD	imagerel $unwind$gz_init
xdata	ENDS
;	COMDAT xdata
xdata	SEGMENT
$chain$0$gz_init DQ 0000a640500020521r		; 1.445e-308
	DD	imagerel gz_init
	DD	imagerel gz_init+71
	DD	imagerel $unwind$gz_init
xdata	ENDS
;	COMDAT xdata
xdata	SEGMENT
$unwind$gz_init DQ 0000b340a00040a01r		; 1.55801e-308
	DD	07006720aH
xdata	ENDS
;	COMDAT xdata
xdata	SEGMENT
$unwind$gz_comp DQ 000076445000a4501r		; 1.02794e-308
	DQ	00009741000065440r		; 1.31465e-308
	DQ	0e00c321000083410r		; -4.72551e+154
xdata	ENDS
;	COMDAT xdata
xdata	SEGMENT
$unwind$gz_zero DQ 00008641400081401r		; 1.1669e-308
	DQ	00006341400075414r		; 8.62693e-309
	DD	070103214H
xdata	ENDS
;	COMDAT xdata
xdata	SEGMENT
$unwind$gz_write DQ 00009741a000a1a01r		; 1.31467e-308
	DQ	00007541a0008641ar		; 1.01916e-308
	DQ	0e016321a0006341ar		; -7.4399e+154
xdata	ENDS
;	COMDAT xdata
xdata	SEGMENT
$unwind$gzwrite DQ 00000420400010401r		; 3.58617e-310
xdata	ENDS
;	COMDAT xdata
xdata	SEGMENT
$unwind$gzfwrite DQ 03002320600020601r		; 1.96423e-77
xdata	ENDS
;	COMDAT xdata
xdata	SEGMENT
$unwind$gzputc DQ 00007340a00040a01r		; 1.00174e-308
	DD	07006320aH
xdata	ENDS
;	COMDAT xdata
xdata	SEGMENT
$chain$1$gzputs DD 021H
	DD	imagerel $LN10@gzputs
	DD	imagerel $LN10@gzputs+33
	DD	imagerel $unwind$gzputs
xdata	ENDS
;	COMDAT xdata
xdata	SEGMENT
$chain$0$gzputs DQ 00006340500020521r		; 8.62661e-309
	DD	imagerel $LN10@gzputs
	DD	imagerel $LN10@gzputs+33
	DD	imagerel $unwind$gzputs
xdata	ENDS
;	COMDAT xdata
xdata	SEGMENT
$unwind$gzputs DQ 07002320600020601r		; 3.53109e+231
xdata	ENDS
;	COMDAT xdata
xdata	SEGMENT
$chain$4$gzvprintf DD 021H
	DD	imagerel $LN23@gzvprintf
	DD	imagerel $LN23@gzvprintf+129
	DD	imagerel $unwind$gzvprintf
xdata	ENDS
;	COMDAT xdata
xdata	SEGMENT
$chain$3$gzvprintf DQ 00009540000040021r	; 1.29724e-308
	DD	083400H
	DD	imagerel $LN23@gzvprintf
	DD	imagerel $LN23@gzvprintf+129
	DD	imagerel $unwind$gzvprintf
xdata	ENDS
;	COMDAT xdata
xdata	SEGMENT
$chain$1$gzvprintf DQ 00009540a00040a21r	; 1.29726e-308
	DD	083405H
	DD	imagerel $LN23@gzvprintf
	DD	imagerel $LN23@gzvprintf+129
	DD	imagerel $unwind$gzvprintf
xdata	ENDS
;	COMDAT xdata
xdata	SEGMENT
$unwind$gzvprintf DQ 0000b741000061001r		; 1.59279e-308
	DQ	0e00c5210000a6410r		; -4.74646e+154
xdata	ENDS
;	COMDAT xdata
xdata	SEGMENT
$unwind$gzprintf DQ 00000421300011301r		; 3.58936e-310
xdata	ENDS
;	COMDAT xdata
xdata	SEGMENT
$unwind$gzflush DQ 00006340a00040a01r		; 8.62672e-309
	DD	07006320aH
xdata	ENDS
;	COMDAT xdata
xdata	SEGMENT
$unwind$gzsetparams DQ 00008641400081401r	; 1.1669e-308
	DQ	00006341400075414r		; 8.62693e-309
	DD	070103214H
END
