; Listing generated by Microsoft (R) Optimizing Compiler Version 19.29.30153.0 

include listing.inc

INCLUDELIB OLDNAMES

PUBLIC	??_C@_02JDPG@rb@				; `string'
PUBLIC	??_C@_03HMFOOINA@r?$CLb@			; `string'
PUBLIC	??_C@_02GMLFBBN@wb@				; `string'
EXTRN	__imp__fseeki64:PROC
EXTRN	__imp_fread:PROC
EXTRN	__imp__ftelli64:PROC
EXTRN	__imp_fwrite:PROC
EXTRN	__imp_fseek:PROC
EXTRN	__imp_fclose:PROC
EXTRN	__imp_fopen:PROC
EXTRN	__imp_ferror:PROC
EXTRN	__imp_ftell:PROC
;	COMDAT ??_C@_02GMLFBBN@wb@
CONST	SEGMENT
??_C@_02GMLFBBN@wb@ DB 'wb', 00H			; `string'
CONST	ENDS
;	COMDAT ??_C@_03HMFOOINA@r?$CLb@
CONST	SEGMENT
??_C@_03HMFOOINA@r?$CLb@ DB 'r+b', 00H			; `string'
CONST	ENDS
;	COMDAT ??_C@_02JDPG@rb@
CONST	SEGMENT
??_C@_02JDPG@rb@ DB 'rb', 00H				; `string'
PUBLIC	fill_fopen64_filefunc
PUBLIC	fill_zlib_filefunc64_32_def_from_filefunc32
PUBLIC	call_ztell64
PUBLIC	call_zseek64
PUBLIC	call_zopen64
;	COMDAT pdata
pdata	SEGMENT
$pdata$fseek64_file_func DD imagerel fseek64_file_func
	DD	imagerel fseek64_file_func+89
	DD	imagerel $unwind$fseek64_file_func
pdata	ENDS
;	COMDAT pdata
pdata	SEGMENT
$pdata$fseek_file_func DD imagerel fseek_file_func
	DD	imagerel fseek_file_func+89
	DD	imagerel $unwind$fseek_file_func
pdata	ENDS
;	COMDAT pdata
pdata	SEGMENT
$pdata$call_ztell64 DD imagerel $LN8@call_ztell
	DD	imagerel $LN8@call_ztell+53
	DD	imagerel $unwind$call_ztell64
;	COMDAT xdata
xdata	SEGMENT
$unwind$call_ztell64 DQ 00000420400010401r	; 3.58617e-310
xdata	ENDS
;	COMDAT xdata
xdata	SEGMENT
$unwind$fseek_file_func DQ 03002320600020601r	; 1.96423e-77
xdata	ENDS
;	COMDAT xdata
xdata	SEGMENT
$unwind$fseek64_file_func DQ 03002320600020601r	; 1.96423e-77
END
