; Listing generated by Microsoft (R) Optimizing Compiler Version 19.29.30153.0 

include listing.inc

INCLUDELIB OLDNAMES

PUBLIC	uncompress
PUBLIC	uncompress2
;	COMDAT pdata
pdata	SEGMENT
$pdata$uncompress DD imagerel $LN4@uncompress
	DD	imagerel $LN4@uncompress+24
	DD	imagerel $unwind$uncompress
pdata	ENDS
;	COMDAT pdata
pdata	SEGMENT
$pdata$uncompress2 DD imagerel $LN29@uncompress
	DD	imagerel $LN29@uncompress+119
	DD	imagerel $unwind$uncompress2
pdata	ENDS
;	COMDAT pdata
pdata	SEGMENT
$pdata$0$uncompress2 DD imagerel $LN29@uncompress+119
	DD	imagerel $LN29@uncompress+320
	DD	imagerel $chain$0$uncompress2
pdata	ENDS
;	COMDAT pdata
pdata	SEGMENT
$pdata$1$uncompress2 DD imagerel $LN29@uncompress+320
	DD	imagerel $LN29@uncompress+349
	DD	imagerel $chain$1$uncompress2
;	COMDAT xdata
xdata	SEGMENT
$chain$1$uncompress2 DD 021H
	DD	imagerel $LN29@uncompress
	DD	imagerel $LN29@uncompress+119
	DD	imagerel $unwind$uncompress2
xdata	ENDS
;	COMDAT xdata
xdata	SEGMENT
$chain$0$uncompress2 DQ 00018340800020821r	; 3.36588e-308
	DD	imagerel $LN29@uncompress
	DD	imagerel $LN29@uncompress+119
	DD	imagerel $unwind$uncompress2
xdata	ENDS
;	COMDAT xdata
xdata	SEGMENT
$unwind$uncompress2 DQ 0001a641a000b1a01r	; 3.67012e-308
	DQ	00012011a0019541ar		; 2.50381e-308
	DQ	0c00dd00fe011f013r		; -3.72659
	DD	0700bH
xdata	ENDS
;	COMDAT xdata
xdata	SEGMENT
$unwind$uncompress DQ 00000420900010901r	; 3.58723e-310
END
