; Listing generated by Microsoft (R) Optimizing Compiler Version 19.29.30153.0 

include listing.inc

INCLUDELIB OLDNAMES

PUBLIC	unz_copyright
	ORG $+13
unz_copyright DB ' unzip 1.01 Copyright 1998-2004 Gilles Vollant - http:/'
	DB	'/www.winimage.com/zLibDll', 00H
PUBLIC	unzGetGlobalComment
PUBLIC	unzCloseCurrentFile
PUBLIC	unzGetLocalExtrafield
PUBLIC	unzeof
PUBLIC	unztell64
PUBLIC	unztell
PUBLIC	unzReadCurrentFile
PUBLIC	unzGetCurrentFileZStreamPos64
PUBLIC	unzOpenCurrentFile2
PUBLIC	unzOpenCurrentFilePassword
PUBLIC	unzOpenCurrentFile
PUBLIC	unzOpenCurrentFile3
PUBLIC	unzGoToFilePos
PUBLIC	unzGoToFilePos64
PUBLIC	unzGetFilePos
PUBLIC	unzGetFilePos64
PUBLIC	unzLocateFile
PUBLIC	unzGoToNextFile
PUBLIC	unzGoToFirstFile
PUBLIC	unzGetCurrentFileInfo
PUBLIC	unzGetCurrentFileInfo64
PUBLIC	unzGetGlobalInfo
PUBLIC	unzGetGlobalInfo64
PUBLIC	unzClose
PUBLIC	unzOpen64
PUBLIC	unzOpen
PUBLIC	unzOpen2_64
PUBLIC	unzOpen2
PUBLIC	unzStringFileNameCompare
;	COMDAT pdata
pdata	SEGMENT
$pdata$unzGetGlobalComment DD imagerel $LN12@unzGetGlob
	DD	imagerel $LN12@unzGetGlob+162
	DD	imagerel $unwind$unzGetGlobalComment
pdata	ENDS
;	COMDAT pdata
pdata	SEGMENT
$pdata$unzCloseCurrentFile DD imagerel $LN12@unzCloseCu
	DD	imagerel $LN12@unzCloseCu+180
	DD	imagerel $unwind$unzCloseCurrentFile
pdata	ENDS
;	COMDAT pdata
pdata	SEGMENT
$pdata$unzGetLocalExtrafield DD imagerel $LN14@unzGetLoca
	DD	imagerel $LN14@unzGetLoca+233
	DD	imagerel $unwind$unzGetLocalExtrafield
pdata	ENDS
;	COMDAT pdata
pdata	SEGMENT
$pdata$unzReadCurrentFile DD imagerel $LN55@unzReadCur
	DD	imagerel $LN55@unzReadCur+54
	DD	imagerel $unwind$unzReadCurrentFile
pdata	ENDS
;	COMDAT pdata
pdata	SEGMENT
$pdata$5$unzReadCurrentFile DD imagerel $LN55@unzReadCur+54
	DD	imagerel $LN55@unzReadCur+516
	DD	imagerel $chain$5$unzReadCurrentFile
pdata	ENDS
;	COMDAT pdata
pdata	SEGMENT
$pdata$7$unzReadCurrentFile DD imagerel $LN55@unzReadCur+516
	DD	imagerel $LN55@unzReadCur+703
	DD	imagerel $chain$7$unzReadCurrentFile
pdata	ENDS
;	COMDAT pdata
pdata	SEGMENT
$pdata$8$unzReadCurrentFile DD imagerel $LN55@unzReadCur+703
	DD	imagerel $LN55@unzReadCur+716
	DD	imagerel $chain$8$unzReadCurrentFile
pdata	ENDS
;	COMDAT pdata
pdata	SEGMENT
$pdata$unzOpenCurrentFile2 DD imagerel $LN4@unzOpenCur
	DD	imagerel $LN4@unzOpenCur+23
	DD	imagerel $unwind$unzOpenCurrentFile2
pdata	ENDS
;	COMDAT pdata
pdata	SEGMENT
$pdata$unzOpenCurrentFilePassword DD imagerel $LN4@unzOpenCur
	DD	imagerel $LN4@unzOpenCur+27
	DD	imagerel $unwind$unzOpenCurrentFilePassword
pdata	ENDS
;	COMDAT pdata
pdata	SEGMENT
$pdata$unzOpenCurrentFile DD imagerel $LN4@unzOpenCur
	DD	imagerel $LN4@unzOpenCur+31
	DD	imagerel $unwind$unzOpenCurrentFile
pdata	ENDS
;	COMDAT pdata
pdata	SEGMENT
$pdata$unzOpenCurrentFile3 DD imagerel $LN29@unzOpenCur
	DD	imagerel $LN29@unzOpenCur+126
	DD	imagerel $unwind$unzOpenCurrentFile3
pdata	ENDS
;	COMDAT pdata
pdata	SEGMENT
$pdata$0$unzOpenCurrentFile3 DD imagerel $LN29@unzOpenCur+126
	DD	imagerel $LN29@unzOpenCur+155
	DD	imagerel $chain$0$unzOpenCurrentFile3
pdata	ENDS
;	COMDAT pdata
pdata	SEGMENT
$pdata$1$unzOpenCurrentFile3 DD imagerel $LN29@unzOpenCur+155
	DD	imagerel $LN29@unzOpenCur+224
	DD	imagerel $chain$1$unzOpenCurrentFile3
pdata	ENDS
;	COMDAT pdata
pdata	SEGMENT
$pdata$2$unzOpenCurrentFile3 DD imagerel $LN29@unzOpenCur+224
	DD	imagerel $LN29@unzOpenCur+243
	DD	imagerel $chain$2$unzOpenCurrentFile3
pdata	ENDS
;	COMDAT pdata
pdata	SEGMENT
$pdata$4$unzOpenCurrentFile3 DD imagerel $LN29@unzOpenCur+243
	DD	imagerel $LN29@unzOpenCur+631
	DD	imagerel $chain$4$unzOpenCurrentFile3
pdata	ENDS
;	COMDAT pdata
pdata	SEGMENT
$pdata$5$unzOpenCurrentFile3 DD imagerel $LN29@unzOpenCur+631
	DD	imagerel $LN29@unzOpenCur+650
	DD	imagerel $chain$5$unzOpenCurrentFile3
pdata	ENDS
;	COMDAT pdata
pdata	SEGMENT
$pdata$unz64local_CheckCurrentFileCoherencyHeader DD imagerel unz64local_CheckCurrentFileCoherencyHeader
	DD	imagerel unz64local_CheckCurrentFileCoherencyHeader+540
	DD	imagerel $unwind$unz64local_CheckCurrentFileCoherencyHeader
pdata	ENDS
;	COMDAT pdata
pdata	SEGMENT
$pdata$unzGoToFilePos DD imagerel $LN5@unzGoToFil
	DD	imagerel $LN5@unzGoToFil+49
	DD	imagerel $unwind$unzGoToFilePos
pdata	ENDS
;	COMDAT pdata
pdata	SEGMENT
$pdata$unzGoToFilePos64 DD imagerel $LN6@unzGoToFil
	DD	imagerel $LN6@unzGoToFil+50
	DD	imagerel $unwind$unzGoToFilePos64
pdata	ENDS
;	COMDAT pdata
pdata	SEGMENT
$pdata$0$unzGoToFilePos64 DD imagerel $LN6@unzGoToFil+50
	DD	imagerel $LN6@unzGoToFil+114
	DD	imagerel $chain$0$unzGoToFilePos64
pdata	ENDS
;	COMDAT pdata
pdata	SEGMENT
$pdata$1$unzGoToFilePos64 DD imagerel $LN6@unzGoToFil+114
	DD	imagerel $LN6@unzGoToFil+125
	DD	imagerel $chain$1$unzGoToFilePos64
pdata	ENDS
;	COMDAT pdata
pdata	SEGMENT
$pdata$unzGetFilePos DD imagerel $LN6@unzGetFile
	DD	imagerel $LN6@unzGetFile+42
	DD	imagerel $unwind$unzGetFilePos
pdata	ENDS
;	COMDAT pdata
pdata	SEGMENT
$pdata$unzLocateFile DD imagerel $LN24@unzLocateF
	DD	imagerel $LN24@unzLocateF+90
	DD	imagerel $unwind$unzLocateFile
pdata	ENDS
;	COMDAT pdata
pdata	SEGMENT
$pdata$3$unzLocateFile DD imagerel $LN24@unzLocateF+90
	DD	imagerel $LN24@unzLocateF+471
	DD	imagerel $chain$3$unzLocateFile
pdata	ENDS
;	COMDAT pdata
pdata	SEGMENT
$pdata$5$unzLocateFile DD imagerel $LN24@unzLocateF+471
	DD	imagerel $LN24@unzLocateF+475
	DD	imagerel $chain$5$unzLocateFile
pdata	ENDS
;	COMDAT pdata
pdata	SEGMENT
$pdata$6$unzLocateFile DD imagerel $LN24@unzLocateF+475
	DD	imagerel $LN24@unzLocateF+491
	DD	imagerel $chain$6$unzLocateFile
pdata	ENDS
;	COMDAT pdata
pdata	SEGMENT
$pdata$unzGoToNextFile DD imagerel $LN11@unzGoToNex
	DD	imagerel $LN11@unzGoToNex+119
	DD	imagerel $unwind$unzGoToNextFile
pdata	ENDS
;	COMDAT pdata
pdata	SEGMENT
$pdata$0$unzGoToNextFile DD imagerel $LN11@unzGoToNex+119
	DD	imagerel $LN11@unzGoToNex+179
	DD	imagerel $chain$0$unzGoToNextFile
pdata	ENDS
;	COMDAT pdata
pdata	SEGMENT
$pdata$1$unzGoToNextFile DD imagerel $LN11@unzGoToNex+179
	DD	imagerel $LN11@unzGoToNex+190
	DD	imagerel $chain$1$unzGoToNextFile
pdata	ENDS
;	COMDAT pdata
pdata	SEGMENT
$pdata$unzGoToFirstFile DD imagerel $LN5@unzGoToFir
	DD	imagerel $LN5@unzGoToFir+118
	DD	imagerel $unwind$unzGoToFirstFile
pdata	ENDS
;	COMDAT pdata
pdata	SEGMENT
$pdata$unzGetCurrentFileInfo DD imagerel $LN7@unzGetCurr
	DD	imagerel $LN7@unzGetCurr+246
	DD	imagerel $unwind$unzGetCurrentFileInfo
pdata	ENDS
;	COMDAT pdata
pdata	SEGMENT
$pdata$unzGetCurrentFileInfo64 DD imagerel $LN4@unzGetCurr
	DD	imagerel $LN4@unzGetCurr+73
	DD	imagerel $unwind$unzGetCurrentFileInfo64
pdata	ENDS
;	COMDAT pdata
pdata	SEGMENT
$pdata$unz64local_GetCurrentFileInfoInternal DD imagerel unz64local_GetCurrentFileInfoInternal
	DD	imagerel unz64local_GetCurrentFileInfoInternal+1407
	DD	imagerel $unwind$unz64local_GetCurrentFileInfoInternal
pdata	ENDS
;	COMDAT pdata
pdata	SEGMENT
$pdata$unzClose DD imagerel $LN7@unzClose
	DD	imagerel $LN7@unzClose+66
	DD	imagerel $unwind$unzClose
pdata	ENDS
;	COMDAT pdata
pdata	SEGMENT
$pdata$unzOpen2_64 DD imagerel $LN7@unzOpen2_6
	DD	imagerel $LN7@unzOpen2_6+96
	DD	imagerel $unwind$unzOpen2_64
pdata	ENDS
;	COMDAT pdata
pdata	SEGMENT
$pdata$unzOpen2 DD imagerel $LN7@unzOpen2
	DD	imagerel $LN7@unzOpen2+65
	DD	imagerel $unwind$unzOpen2
pdata	ENDS
;	COMDAT pdata
pdata	SEGMENT
$pdata$unzOpenInternal DD imagerel unzOpenInternal
	DD	imagerel unzOpenInternal+174
	DD	imagerel $unwind$unzOpenInternal
pdata	ENDS
;	COMDAT pdata
pdata	SEGMENT
$pdata$3$unzOpenInternal DD imagerel unzOpenInternal+174
	DD	imagerel unzOpenInternal+878
	DD	imagerel $chain$3$unzOpenInternal
pdata	ENDS
;	COMDAT pdata
pdata	SEGMENT
$pdata$4$unzOpenInternal DD imagerel unzOpenInternal+878
	DD	imagerel unzOpenInternal+1105
	DD	imagerel $chain$4$unzOpenInternal
pdata	ENDS
;	COMDAT pdata
pdata	SEGMENT
$pdata$unz64local_SearchCentralDir64 DD imagerel unz64local_SearchCentralDir64
	DD	imagerel unz64local_SearchCentralDir64+97
	DD	imagerel $unwind$unz64local_SearchCentralDir64
pdata	ENDS
;	COMDAT pdata
pdata	SEGMENT
$pdata$0$unz64local_SearchCentralDir64 DD imagerel unz64local_SearchCentralDir64+97
	DD	imagerel unz64local_SearchCentralDir64+117
	DD	imagerel $chain$0$unz64local_SearchCentralDir64
pdata	ENDS
;	COMDAT pdata
pdata	SEGMENT
$pdata$1$unz64local_SearchCentralDir64 DD imagerel unz64local_SearchCentralDir64+117
	DD	imagerel unz64local_SearchCentralDir64+309
	DD	imagerel $chain$1$unz64local_SearchCentralDir64
pdata	ENDS
;	COMDAT pdata
pdata	SEGMENT
$pdata$2$unz64local_SearchCentralDir64 DD imagerel unz64local_SearchCentralDir64+309
	DD	imagerel unz64local_SearchCentralDir64+332
	DD	imagerel $chain$2$unz64local_SearchCentralDir64
pdata	ENDS
;	COMDAT pdata
pdata	SEGMENT
$pdata$3$unz64local_SearchCentralDir64 DD imagerel unz64local_SearchCentralDir64+332
	DD	imagerel unz64local_SearchCentralDir64+541
	DD	imagerel $chain$3$unz64local_SearchCentralDir64
pdata	ENDS
;	COMDAT pdata
pdata	SEGMENT
$pdata$unz64local_SearchCentralDir DD imagerel unz64local_SearchCentralDir
	DD	imagerel unz64local_SearchCentralDir+99
	DD	imagerel $unwind$unz64local_SearchCentralDir
pdata	ENDS
;	COMDAT pdata
pdata	SEGMENT
$pdata$0$unz64local_SearchCentralDir DD imagerel unz64local_SearchCentralDir+99
	DD	imagerel unz64local_SearchCentralDir+119
	DD	imagerel $chain$0$unz64local_SearchCentralDir
pdata	ENDS
;	COMDAT pdata
pdata	SEGMENT
$pdata$1$unz64local_SearchCentralDir DD imagerel unz64local_SearchCentralDir+119
	DD	imagerel unz64local_SearchCentralDir+309
	DD	imagerel $chain$1$unz64local_SearchCentralDir
pdata	ENDS
;	COMDAT pdata
pdata	SEGMENT
$pdata$2$unz64local_SearchCentralDir DD imagerel unz64local_SearchCentralDir+309
	DD	imagerel unz64local_SearchCentralDir+343
	DD	imagerel $chain$2$unz64local_SearchCentralDir
pdata	ENDS
;	COMDAT pdata
pdata	SEGMENT
$pdata$3$unz64local_SearchCentralDir DD imagerel unz64local_SearchCentralDir+343
	DD	imagerel unz64local_SearchCentralDir+362
	DD	imagerel $chain$3$unz64local_SearchCentralDir
pdata	ENDS
;	COMDAT pdata
pdata	SEGMENT
$pdata$strcmpcasenosensitive_internal DD imagerel strcmpcasenosensitive_internal
	DD	imagerel strcmpcasenosensitive_internal+112
	DD	imagerel $unwind$strcmpcasenosensitive_internal
pdata	ENDS
;	COMDAT pdata
pdata	SEGMENT
$pdata$unz64local_getLong64 DD imagerel unz64local_getLong64
	DD	imagerel unz64local_getLong64+369
	DD	imagerel $unwind$unz64local_getLong64
pdata	ENDS
;	COMDAT pdata
pdata	SEGMENT
$pdata$unz64local_getLong DD imagerel unz64local_getLong
	DD	imagerel unz64local_getLong+205
	DD	imagerel $unwind$unz64local_getLong
pdata	ENDS
;	COMDAT pdata
pdata	SEGMENT
$pdata$unz64local_getShort DD imagerel unz64local_getShort
	DD	imagerel unz64local_getShort+124
	DD	imagerel $unwind$unz64local_getShort
pdata	ENDS
;	COMDAT pdata
pdata	SEGMENT
$pdata$unz64local_getByte DD imagerel unz64local_getByte
	DD	imagerel unz64local_getByte+102
	DD	imagerel $unwind$unz64local_getByte
;	COMDAT xdata
xdata	SEGMENT
$unwind$unz64local_getByte DQ 00008640f00060f01r ; 1.16689e-308
	DQ	0700b320f0007340fr		; 5.2777e+231
xdata	ENDS
;	COMDAT xdata
xdata	SEGMENT
$unwind$unz64local_getShort DQ 00008641400081401r ; 1.1669e-308
	DQ	00006341400075414r		; 8.62693e-309
	DD	070103214H
xdata	ENDS
;	COMDAT xdata
xdata	SEGMENT
$unwind$unz64local_getLong DQ 00008741500081501r ; 1.1756e-308
	DQ	00006341500076415r		; 8.62695e-309
	DD	0e0113215H
xdata	ENDS
;	COMDAT xdata
xdata	SEGMENT
$unwind$unz64local_getLong64 DQ 00008741500081501r ; 1.1756e-308
	DQ	00006341500076415r		; 8.62695e-309
	DD	0e0113215H
xdata	ENDS
;	COMDAT xdata
xdata	SEGMENT
$unwind$strcmpcasenosensitive_internal DQ 00001340500020501r ; 1.67326e-309
xdata	ENDS
;	COMDAT xdata
xdata	SEGMENT
$chain$3$unz64local_SearchCentralDir DD 021H
	DD	imagerel unz64local_SearchCentralDir
	DD	imagerel unz64local_SearchCentralDir+99
	DD	imagerel $unwind$unz64local_SearchCentralDir
xdata	ENDS
;	COMDAT xdata
xdata	SEGMENT
$chain$2$unz64local_SearchCentralDir DD 021H
	DD	imagerel unz64local_SearchCentralDir+99
	DD	imagerel unz64local_SearchCentralDir+119
	DD	imagerel $chain$0$unz64local_SearchCentralDir
xdata	ENDS
;	COMDAT xdata
xdata	SEGMENT
$chain$1$unz64local_SearchCentralDir DQ 0000ac40500020521r ; 1.49716e-308
	DD	imagerel unz64local_SearchCentralDir+99
	DD	imagerel unz64local_SearchCentralDir+119
	DD	imagerel $chain$0$unz64local_SearchCentralDir
xdata	ENDS
;	COMDAT xdata
xdata	SEGMENT
$chain$0$unz64local_SearchCentralDir DQ 0000be40500020521r ; 1.65361e-308
	DD	imagerel unz64local_SearchCentralDir
	DD	imagerel unz64local_SearchCentralDir+99
	DD	imagerel $unwind$unz64local_SearchCentralDir
xdata	ENDS
;	COMDAT xdata
xdata	SEGMENT
$unwind$unz64local_SearchCentralDir DQ 0000d341000081001r ; 1.83615e-308
	DQ	07008d00af00c3210r		; 4.81526e+231
	DD	050066007H
xdata	ENDS
;	COMDAT xdata
xdata	SEGMENT
$chain$3$unz64local_SearchCentralDir64 DD 021H
	DD	imagerel unz64local_SearchCentralDir64
	DD	imagerel unz64local_SearchCentralDir64+97
	DD	imagerel $unwind$unz64local_SearchCentralDir64
xdata	ENDS
;	COMDAT xdata
xdata	SEGMENT
$chain$2$unz64local_SearchCentralDir64 DD 021H
	DD	imagerel unz64local_SearchCentralDir64+97
	DD	imagerel unz64local_SearchCentralDir64+117
	DD	imagerel $chain$0$unz64local_SearchCentralDir64
xdata	ENDS
;	COMDAT xdata
xdata	SEGMENT
$chain$1$unz64local_SearchCentralDir64 DQ 0000cc40500020521r ; 1.77529e-308
	DD	imagerel unz64local_SearchCentralDir64+97
	DD	imagerel unz64local_SearchCentralDir64+117
	DD	imagerel $chain$0$unz64local_SearchCentralDir64
xdata	ENDS
;	COMDAT xdata
xdata	SEGMENT
$chain$0$unz64local_SearchCentralDir64 DQ 00004d40500020521r ; 6.71444e-309
	DD	imagerel unz64local_SearchCentralDir64
	DD	imagerel unz64local_SearchCentralDir64+97
	DD	imagerel $unwind$unz64local_SearchCentralDir64
xdata	ENDS
;	COMDAT xdata
xdata	SEGMENT
$unwind$unz64local_SearchCentralDir64 DQ 0f009420d00070d01r ; -4.90169e+231
	DQ	0500360047005e007r		; 2.80435e+77
	DD	03002H
xdata	ENDS
;	COMDAT xdata
xdata	SEGMENT
$chain$4$unzOpenInternal DQ 0002af40000020021r	; 7.49659e-308
	DD	imagerel unzOpenInternal
	DD	imagerel unzOpenInternal+174
	DD	imagerel $unwind$unzOpenInternal
xdata	ENDS
;	COMDAT xdata
xdata	SEGMENT
$chain$3$unzOpenInternal DQ 0002af41000041021r	; 7.49665e-308
	DD	02be408H
	DD	imagerel unzOpenInternal
	DD	imagerel unzOpenInternal+174
	DD	imagerel $unwind$unzOpenInternal
xdata	ENDS
;	COMDAT xdata
xdata	SEGMENT
$unwind$unzOpenInternal DQ 0003174ab0009ab01r	; 9.71007e-308
	DQ	0002c01110030349er		; 7.78892e-308
	DQ	0000050026003c005r		; 4.34635e-310
xdata	ENDS
;	COMDAT xdata
xdata	SEGMENT
$unwind$unzOpen2 DQ 00011010700020701r		; 2.3647e-308
xdata	ENDS
;	COMDAT xdata
xdata	SEGMENT
$unwind$unzOpen2_64 DQ 00011010700020701r	; 2.3647e-308
xdata	ENDS
;	COMDAT xdata
xdata	SEGMENT
$unwind$unzClose DQ 03002320600020601r		; 1.96423e-77
xdata	ENDS
;	COMDAT xdata
xdata	SEGMENT
$unwind$unz64local_GetCurrentFileInfoInternal DQ 00016e4bd000ebd01r ; 3.18373e-308
	DQ	0001774620015f46ar		; 3.26177e-308
	DQ	0001901210018345ar		; 3.47729e-308
	DQ	050106011c013d015r		; 4.74032e+77
xdata	ENDS
;	COMDAT xdata
xdata	SEGMENT
$unwind$unzGetCurrentFileInfo64 DQ 00000a20400010401r ; 8.80119e-310
xdata	ENDS
;	COMDAT xdata
xdata	SEGMENT
$unwind$unzGetCurrentFileInfo DQ 00016010900030901r ; 3.06004e-308
	DD	03002H
xdata	ENDS
;	COMDAT xdata
xdata	SEGMENT
$unwind$unzGoToFirstFile DQ 0000c342a00042a01r	; 1.69714e-308
	DD	070029206H
xdata	ENDS
;	COMDAT xdata
xdata	SEGMENT
$chain$1$unzGoToNextFile DD 021H
	DD	imagerel $LN11@unzGoToNex
	DD	imagerel $LN11@unzGoToNex+119
	DD	imagerel $unwind$unzGoToNextFile
xdata	ENDS
;	COMDAT xdata
xdata	SEGMENT
$chain$0$unzGoToNextFile DQ 0000c340500020521r	; 1.69706e-308
	DD	imagerel $LN11@unzGoToNex
	DD	imagerel $LN11@unzGoToNex+119
	DD	imagerel $unwind$unzGoToNextFile
xdata	ENDS
;	COMDAT xdata
xdata	SEGMENT
$unwind$unzGoToNextFile DQ 07002920600020601r	; 3.60386e+231
xdata	ENDS
;	COMDAT xdata
xdata	SEGMENT
$chain$6$unzLocateFile DD 021H
	DD	imagerel $LN24@unzLocateF
	DD	imagerel $LN24@unzLocateF+90
	DD	imagerel $unwind$unzLocateFile
xdata	ENDS
;	COMDAT xdata
xdata	SEGMENT
$chain$5$unzLocateFile DQ 00034f40000080021r	; 1.16556e-307
	DQ	0003cc4000035e400r		; 1.60014e-307
	DD	03b3400H
	DD	imagerel $LN24@unzLocateF
	DD	imagerel $LN24@unzLocateF+90
	DD	imagerel $unwind$unzLocateFile
xdata	ENDS
;	COMDAT xdata
xdata	SEGMENT
$chain$3$unzLocateFile DQ 00034f43f00083f21r	; 1.16561e-307
	DQ	0003cc41c0035e42br		; 1.60016e-307
	DD	03b3408H
	DD	imagerel $LN24@unzLocateF
	DD	imagerel $LN24@unzLocateF+90
	DD	imagerel $unwind$unzLocateFile
xdata	ENDS
;	COMDAT xdata
xdata	SEGMENT
$unwind$unzLocateFile DQ 00036010b00050b01r	; 1.22402e-307
	DQ	00000500260037004r		; 4.34635e-310
xdata	ENDS
;	COMDAT xdata
xdata	SEGMENT
$unwind$unzGetFilePos DQ 03002520600020601r	; 1.97773e-77
xdata	ENDS
;	COMDAT xdata
xdata	SEGMENT
$chain$1$unzGoToFilePos64 DD 021H
	DD	imagerel $LN6@unzGoToFil
	DD	imagerel $LN6@unzGoToFil+50
	DD	imagerel $unwind$unzGoToFilePos64
xdata	ENDS
;	COMDAT xdata
xdata	SEGMENT
$chain$0$unzGoToFilePos64 DQ 0000c340500020521r	; 1.69706e-308
	DD	imagerel $LN6@unzGoToFil
	DD	imagerel $LN6@unzGoToFil+50
	DD	imagerel $unwind$unzGoToFilePos64
xdata	ENDS
;	COMDAT xdata
xdata	SEGMENT
$unwind$unzGoToFilePos64 DQ 07002920600020601r	; 3.60386e+231
xdata	ENDS
;	COMDAT xdata
xdata	SEGMENT
$unwind$unzGoToFilePos DQ 00000620400010401r	; 5.32451e-310
xdata	ENDS
;	COMDAT xdata
xdata	SEGMENT
$unwind$unz64local_CheckCurrentFileCoherencyHeader DQ 00004d466000b6601r ; 6.7165e-309
	DQ	0f00a420e000e545er		; -5.09576e+231
	DQ	060037004c006e008r		; 3.25769e+154
	DD	03002H
xdata	ENDS
;	COMDAT xdata
xdata	SEGMENT
$chain$5$unzOpenCurrentFile3 DD 021H
	DD	imagerel $LN29@unzOpenCur
	DD	imagerel $LN29@unzOpenCur+126
	DD	imagerel $unwind$unzOpenCurrentFile3
xdata	ENDS
;	COMDAT xdata
xdata	SEGMENT
$chain$4$unzOpenCurrentFile3 DQ 0000bf40000040021r ; 1.66229e-308
	DD	0a3400H
	DD	imagerel $LN29@unzOpenCur
	DD	imagerel $LN29@unzOpenCur+126
	DD	imagerel $unwind$unzOpenCurrentFile3
xdata	ENDS
;	COMDAT xdata
xdata	SEGMENT
$chain$2$unzOpenCurrentFile3 DD 021H
	DD	imagerel $LN29@unzOpenCur+126
	DD	imagerel $LN29@unzOpenCur+155
	DD	imagerel $chain$0$unzOpenCurrentFile3
xdata	ENDS
;	COMDAT xdata
xdata	SEGMENT
$chain$1$unzOpenCurrentFile3 DQ 0000bf40500020521r ; 1.6623e-308
	DD	imagerel $LN29@unzOpenCur+126
	DD	imagerel $LN29@unzOpenCur+155
	DD	imagerel $chain$0$unzOpenCurrentFile3
xdata	ENDS
;	COMDAT xdata
xdata	SEGMENT
$chain$0$unzOpenCurrentFile3 DQ 0000a340500020521r ; 1.41893e-308
	DD	imagerel $LN29@unzOpenCur
	DD	imagerel $LN29@unzOpenCur+126
	DD	imagerel $unwind$unzOpenCurrentFile3
xdata	ENDS
;	COMDAT xdata
xdata	SEGMENT
$unwind$unzOpenCurrentFile3 DQ 0000c540d00060d01r ; 1.71446e-308
	DQ	060067007e009520dr		; 3.76049e+154
xdata	ENDS
;	COMDAT xdata
xdata	SEGMENT
$unwind$unzOpenCurrentFile DQ 00000620400010401r ; 5.32451e-310
xdata	ENDS
;	COMDAT xdata
xdata	SEGMENT
$unwind$unzOpenCurrentFilePassword DQ 00000620400010401r ; 5.32451e-310
xdata	ENDS
;	COMDAT xdata
xdata	SEGMENT
$unwind$unzOpenCurrentFile2 DQ 00000620400010401r ; 5.32451e-310
xdata	ENDS
;	COMDAT xdata
xdata	SEGMENT
$chain$8$unzReadCurrentFile DD 021H
	DD	imagerel $LN55@unzReadCur
	DD	imagerel $LN55@unzReadCur+54
	DD	imagerel $unwind$unzReadCurrentFile
xdata	ENDS
;	COMDAT xdata
xdata	SEGMENT
$chain$7$unzReadCurrentFile DQ 00004f400000c0021r ; 6.88817e-309
	DQ	00006d4000005e400r		; 9.49568e-309
	DQ	0000b6400000c7400r		; 1.58406e-308
	DD	0a5400H
	DD	imagerel $LN55@unzReadCur
	DD	imagerel $LN55@unzReadCur+54
	DD	imagerel $unwind$unzReadCurrentFile
xdata	ENDS
;	COMDAT xdata
xdata	SEGMENT
$chain$5$unzReadCurrentFile DQ 00004f41e000c1e21r ; 6.8888e-309
	DQ	00006d4140005e419r		; 9.4961e-309
	DQ	0000b640a000c740fr		; 1.58408e-308
	DD	0a5405H
	DD	imagerel $LN55@unzReadCur
	DD	imagerel $LN55@unzReadCur+54
	DD	imagerel $unwind$unzReadCurrentFile
xdata	ENDS
;	COMDAT xdata
xdata	SEGMENT
$unwind$unzReadCurrentFile DQ 0c004620800030801r ; -2.54787
	DD	03002H
xdata	ENDS
;	COMDAT xdata
xdata	SEGMENT
$unwind$unzGetLocalExtrafield DQ 00007640f00060f01r ; 1.02782e-308
	DQ	0700b320f0006340fr		; 5.2777e+231
xdata	ENDS
;	COMDAT xdata
xdata	SEGMENT
$unwind$unzCloseCurrentFile DQ 00007640f00060f01r ; 1.02782e-308
	DQ	0700b320f0006340fr		; 5.2777e+231
xdata	ENDS
;	COMDAT xdata
xdata	SEGMENT
$unwind$unzGetGlobalComment DQ 00006644300084301r ; 8.88868e-309
	DQ	00007340f0008540fr		; 1.00175e-308
	DD	0700b320fH
END
