; Listing generated by Microsoft (R) Optimizing Compiler Version 19.29.30153.0 

include listing.inc

INCLUDELIB OLDNAMES

PUBLIC	??_C@_01JOAMLHOP@?9@				; `string'
EXTRN	__imp__time64:PROC
EXTRN	__imp_rand:PROC
EXTRN	__imp_srand:PROC
;	COMDAT ??_C@_01JOAMLHOP@?9@
CONST	SEGMENT
??_C@_01JOAMLHOP@?9@ DB '-', 00H			; `string'
PUBLIC	zipClose
PUBLIC	Write_GlobalComment
PUBLIC	Write_EndOfCentralDirectoryRecord
PUBLIC	Write_Zip64EndOfCentralDirectoryRecord
PUBLIC	Write_Zip64EndOfCentralDirectoryLocator
PUBLIC	zipCloseFileInZip
PUBLIC	zipCloseFileInZipRaw64
PUBLIC	zipCloseFileInZipRaw
PUBLIC	zipWriteInFileInZip
PUBLIC	zipOpenNewFileInZip
PUBLIC	zipOpenNewFileInZip64
PUBLIC	zipOpenNewFileInZip2_64
PUBLIC	zipOpenNewFileInZip2
PUBLIC	zipOpenNewFileInZip3_64
PUBLIC	zipOpenNewFileInZip3
PUBLIC	zipOpenNewFileInZip4_64
PUBLIC	Write_LocalFileHeader
PUBLIC	zipOpen64
PUBLIC	zipOpen
PUBLIC	zipOpen2_64
PUBLIC	zipOpen2
PUBLIC	zipOpen3
PUBLIC	LoadCentralDirectoryRecord
?calls@?1??crypthead@@9@9 DD 01H DUP (?)		; `crypthead'::`2'::calls
_BSS	ENDS
;	COMDAT pdata
pdata	SEGMENT
$pdata$zipClose DD imagerel $LN26@zipClose
	DD	imagerel $LN26@zipClose+49
	DD	imagerel $unwind$zipClose
pdata	ENDS
;	COMDAT pdata
pdata	SEGMENT
$pdata$0$zipClose DD imagerel $LN26@zipClose+49
	DD	imagerel $LN26@zipClose+54
	DD	imagerel $chain$0$zipClose
pdata	ENDS
;	COMDAT pdata
pdata	SEGMENT
$pdata$1$zipClose DD imagerel $LN26@zipClose+54
	DD	imagerel $LN26@zipClose+87
	DD	imagerel $chain$1$zipClose
pdata	ENDS
;	COMDAT pdata
pdata	SEGMENT
$pdata$2$zipClose DD imagerel $LN26@zipClose+87
	DD	imagerel $LN26@zipClose+255
	DD	imagerel $chain$2$zipClose
pdata	ENDS
;	COMDAT pdata
pdata	SEGMENT
$pdata$3$zipClose DD imagerel $LN26@zipClose+255
	DD	imagerel $LN26@zipClose+307
	DD	imagerel $chain$3$zipClose
pdata	ENDS
;	COMDAT pdata
pdata	SEGMENT
$pdata$4$zipClose DD imagerel $LN26@zipClose+307
	DD	imagerel $LN26@zipClose+330
	DD	imagerel $chain$4$zipClose
pdata	ENDS
;	COMDAT pdata
pdata	SEGMENT
$pdata$5$zipClose DD imagerel $LN26@zipClose+330
	DD	imagerel $LN26@zipClose+361
	DD	imagerel $chain$5$zipClose
pdata	ENDS
;	COMDAT pdata
pdata	SEGMENT
$pdata$Write_GlobalComment DD imagerel $LN10@Write_Glob
	DD	imagerel $LN10@Write_Glob+137
	DD	imagerel $unwind$Write_GlobalComment
pdata	ENDS
;	COMDAT pdata
pdata	SEGMENT
$pdata$Write_EndOfCentralDirectoryRecord DD imagerel $LN24@Write_EndO
	DD	imagerel $LN24@Write_EndO+113
	DD	imagerel $unwind$Write_EndOfCentralDirectoryRecord
pdata	ENDS
;	COMDAT pdata
pdata	SEGMENT
$pdata$0$Write_EndOfCentralDirectoryRecord DD imagerel $LN24@Write_EndO+113
	DD	imagerel $LN24@Write_EndO+270
	DD	imagerel $chain$0$Write_EndOfCentralDirectoryRecord
pdata	ENDS
;	COMDAT pdata
pdata	SEGMENT
$pdata$1$Write_EndOfCentralDirectoryRecord DD imagerel $LN24@Write_EndO+270
	DD	imagerel $LN24@Write_EndO+286
	DD	imagerel $chain$1$Write_EndOfCentralDirectoryRecord
pdata	ENDS
;	COMDAT pdata
pdata	SEGMENT
$pdata$Write_Zip64EndOfCentralDirectoryRecord DD imagerel $LN13@Write_Zip6
	DD	imagerel $LN13@Write_Zip6+301
	DD	imagerel $unwind$Write_Zip64EndOfCentralDirectoryRecord
pdata	ENDS
;	COMDAT pdata
pdata	SEGMENT
$pdata$Write_Zip64EndOfCentralDirectoryLocator DD imagerel $LN10@Write_Zip6
	DD	imagerel $LN10@Write_Zip6+125
	DD	imagerel $unwind$Write_Zip64EndOfCentralDirectoryLocator
pdata	ENDS
;	COMDAT pdata
pdata	SEGMENT
$pdata$zipCloseFileInZipRaw64 DD imagerel $LN63@zipCloseFi
	DD	imagerel $LN63@zipCloseFi+52
	DD	imagerel $unwind$zipCloseFileInZipRaw64
pdata	ENDS
;	COMDAT pdata
pdata	SEGMENT
$pdata$3$zipCloseFileInZipRaw64 DD imagerel $LN63@zipCloseFi+52
	DD	imagerel $LN63@zipCloseFi+598
	DD	imagerel $chain$3$zipCloseFileInZipRaw64
pdata	ENDS
;	COMDAT pdata
pdata	SEGMENT
$pdata$5$zipCloseFileInZipRaw64 DD imagerel $LN63@zipCloseFi+598
	DD	imagerel $LN63@zipCloseFi+1148
	DD	imagerel $chain$5$zipCloseFileInZipRaw64
pdata	ENDS
;	COMDAT pdata
pdata	SEGMENT
$pdata$6$zipCloseFileInZipRaw64 DD imagerel $LN63@zipCloseFi+1148
	DD	imagerel $LN63@zipCloseFi+1165
	DD	imagerel $chain$6$zipCloseFileInZipRaw64
pdata	ENDS
;	COMDAT pdata
pdata	SEGMENT
$pdata$zipWriteInFileInZip DD imagerel $LN30@zipWriteIn
	DD	imagerel $LN30@zipWriteIn+55
	DD	imagerel $unwind$zipWriteInFileInZip
pdata	ENDS
;	COMDAT pdata
pdata	SEGMENT
$pdata$0$zipWriteInFileInZip DD imagerel $LN30@zipWriteIn+55
	DD	imagerel $LN30@zipWriteIn+215
	DD	imagerel $chain$0$zipWriteInFileInZip
pdata	ENDS
;	COMDAT pdata
pdata	SEGMENT
$pdata$2$zipWriteInFileInZip DD imagerel $LN30@zipWriteIn+215
	DD	imagerel $LN30@zipWriteIn+338
	DD	imagerel $chain$2$zipWriteInFileInZip
pdata	ENDS
;	COMDAT pdata
pdata	SEGMENT
$pdata$3$zipWriteInFileInZip DD imagerel $LN30@zipWriteIn+338
	DD	imagerel $LN30@zipWriteIn+364
	DD	imagerel $chain$3$zipWriteInFileInZip
pdata	ENDS
;	COMDAT pdata
pdata	SEGMENT
$pdata$zip64FlushWriteBuffer DD imagerel zip64FlushWriteBuffer
	DD	imagerel zip64FlushWriteBuffer+22
	DD	imagerel $unwind$zip64FlushWriteBuffer
pdata	ENDS
;	COMDAT pdata
pdata	SEGMENT
$pdata$0$zip64FlushWriteBuffer DD imagerel zip64FlushWriteBuffer+22
	DD	imagerel zip64FlushWriteBuffer+37
	DD	imagerel $chain$0$zip64FlushWriteBuffer
pdata	ENDS
;	COMDAT pdata
pdata	SEGMENT
$pdata$2$zip64FlushWriteBuffer DD imagerel zip64FlushWriteBuffer+37
	DD	imagerel zip64FlushWriteBuffer+118
	DD	imagerel $chain$2$zip64FlushWriteBuffer
pdata	ENDS
;	COMDAT pdata
pdata	SEGMENT
$pdata$3$zip64FlushWriteBuffer DD imagerel zip64FlushWriteBuffer+118
	DD	imagerel zip64FlushWriteBuffer+123
	DD	imagerel $chain$3$zip64FlushWriteBuffer
pdata	ENDS
;	COMDAT pdata
pdata	SEGMENT
$pdata$4$zip64FlushWriteBuffer DD imagerel zip64FlushWriteBuffer+123
	DD	imagerel zip64FlushWriteBuffer+219
	DD	imagerel $chain$4$zip64FlushWriteBuffer
pdata	ENDS
;	COMDAT pdata
pdata	SEGMENT
$pdata$zipOpenNewFileInZip DD imagerel $LN4@zipOpenNew
	DD	imagerel $LN4@zipOpenNew+137
	DD	imagerel $unwind$zipOpenNewFileInZip
pdata	ENDS
;	COMDAT pdata
pdata	SEGMENT
$pdata$zipOpenNewFileInZip64 DD imagerel $LN4@zipOpenNew
	DD	imagerel $LN4@zipOpenNew+144
	DD	imagerel $unwind$zipOpenNewFileInZip64
pdata	ENDS
;	COMDAT pdata
pdata	SEGMENT
$pdata$zipOpenNewFileInZip2_64 DD imagerel $LN4@zipOpenNew
	DD	imagerel $LN4@zipOpenNew+151
	DD	imagerel $unwind$zipOpenNewFileInZip2_64
pdata	ENDS
;	COMDAT pdata
pdata	SEGMENT
$pdata$zipOpenNewFileInZip2 DD imagerel $LN4@zipOpenNew
	DD	imagerel $LN4@zipOpenNew+144
	DD	imagerel $unwind$zipOpenNewFileInZip2
pdata	ENDS
;	COMDAT pdata
pdata	SEGMENT
$pdata$zipOpenNewFileInZip3_64 DD imagerel $LN4@zipOpenNew
	DD	imagerel $LN4@zipOpenNew+179
	DD	imagerel $unwind$zipOpenNewFileInZip3_64
pdata	ENDS
;	COMDAT pdata
pdata	SEGMENT
$pdata$zipOpenNewFileInZip3 DD imagerel $LN4@zipOpenNew
	DD	imagerel $LN4@zipOpenNew+172
	DD	imagerel $unwind$zipOpenNewFileInZip3
pdata	ENDS
;	COMDAT pdata
pdata	SEGMENT
$pdata$zipOpenNewFileInZip4_64 DD imagerel $LN69@zipOpenNew
	DD	imagerel $LN69@zipOpenNew+73
	DD	imagerel $unwind$zipOpenNewFileInZip4_64
pdata	ENDS
;	COMDAT pdata
pdata	SEGMENT
$pdata$3$zipOpenNewFileInZip4_64 DD imagerel $LN69@zipOpenNew+73
	DD	imagerel $LN69@zipOpenNew+855
	DD	imagerel $chain$3$zipOpenNewFileInZip4_64
pdata	ENDS
;	COMDAT pdata
pdata	SEGMENT
$pdata$4$zipOpenNewFileInZip4_64 DD imagerel $LN69@zipOpenNew+855
	DD	imagerel $LN69@zipOpenNew+1023
	DD	imagerel $chain$4$zipOpenNewFileInZip4_64
pdata	ENDS
;	COMDAT pdata
pdata	SEGMENT
$pdata$5$zipOpenNewFileInZip4_64 DD imagerel $LN69@zipOpenNew+1023
	DD	imagerel $LN69@zipOpenNew+1038
	DD	imagerel $chain$5$zipOpenNewFileInZip4_64
pdata	ENDS
;	COMDAT pdata
pdata	SEGMENT
$pdata$6$zipOpenNewFileInZip4_64 DD imagerel $LN69@zipOpenNew+1038
	DD	imagerel $LN69@zipOpenNew+1049
	DD	imagerel $chain$6$zipOpenNewFileInZip4_64
pdata	ENDS
;	COMDAT pdata
pdata	SEGMENT
$pdata$7$zipOpenNewFileInZip4_64 DD imagerel $LN69@zipOpenNew+1049
	DD	imagerel $LN69@zipOpenNew+1455
	DD	imagerel $chain$7$zipOpenNewFileInZip4_64
pdata	ENDS
;	COMDAT pdata
pdata	SEGMENT
$pdata$8$zipOpenNewFileInZip4_64 DD imagerel $LN69@zipOpenNew+1455
	DD	imagerel $LN69@zipOpenNew+1471
	DD	imagerel $chain$8$zipOpenNewFileInZip4_64
pdata	ENDS
;	COMDAT pdata
pdata	SEGMENT
$pdata$Write_LocalFileHeader DD imagerel $LN33@Write_Loca
	DD	imagerel $LN33@Write_Loca+604
	DD	imagerel $unwind$Write_LocalFileHeader
pdata	ENDS
;	COMDAT pdata
pdata	SEGMENT
$pdata$zipOpen2_64 DD imagerel $LN7@zipOpen2_6
	DD	imagerel $LN7@zipOpen2_6+94
	DD	imagerel $unwind$zipOpen2_64
pdata	ENDS
;	COMDAT pdata
pdata	SEGMENT
$pdata$zipOpen2 DD imagerel $LN7@zipOpen2
	DD	imagerel $LN7@zipOpen2+78
	DD	imagerel $unwind$zipOpen2
pdata	ENDS
;	COMDAT pdata
pdata	SEGMENT
$pdata$zipOpen3 DD imagerel $LN16@zipOpen3
	DD	imagerel $LN16@zipOpen3+412
	DD	imagerel $unwind$zipOpen3
pdata	ENDS
;	COMDAT pdata
pdata	SEGMENT
$pdata$LoadCentralDirectoryRecord DD imagerel $LN60@LoadCentra
	DD	imagerel $LN60@LoadCentra+948
	DD	imagerel $unwind$LoadCentralDirectoryRecord
pdata	ENDS
;	COMDAT pdata
pdata	SEGMENT
$pdata$zip64local_SearchCentralDir64 DD imagerel zip64local_SearchCentralDir64
	DD	imagerel zip64local_SearchCentralDir64+97
	DD	imagerel $unwind$zip64local_SearchCentralDir64
pdata	ENDS
;	COMDAT pdata
pdata	SEGMENT
$pdata$0$zip64local_SearchCentralDir64 DD imagerel zip64local_SearchCentralDir64+97
	DD	imagerel zip64local_SearchCentralDir64+117
	DD	imagerel $chain$0$zip64local_SearchCentralDir64
pdata	ENDS
;	COMDAT pdata
pdata	SEGMENT
$pdata$1$zip64local_SearchCentralDir64 DD imagerel zip64local_SearchCentralDir64+117
	DD	imagerel zip64local_SearchCentralDir64+309
	DD	imagerel $chain$1$zip64local_SearchCentralDir64
pdata	ENDS
;	COMDAT pdata
pdata	SEGMENT
$pdata$2$zip64local_SearchCentralDir64 DD imagerel zip64local_SearchCentralDir64+309
	DD	imagerel zip64local_SearchCentralDir64+332
	DD	imagerel $chain$2$zip64local_SearchCentralDir64
pdata	ENDS
;	COMDAT pdata
pdata	SEGMENT
$pdata$3$zip64local_SearchCentralDir64 DD imagerel zip64local_SearchCentralDir64+332
	DD	imagerel zip64local_SearchCentralDir64+541
	DD	imagerel $chain$3$zip64local_SearchCentralDir64
pdata	ENDS
;	COMDAT pdata
pdata	SEGMENT
$pdata$zip64local_SearchCentralDir DD imagerel zip64local_SearchCentralDir
	DD	imagerel zip64local_SearchCentralDir+99
	DD	imagerel $unwind$zip64local_SearchCentralDir
pdata	ENDS
;	COMDAT pdata
pdata	SEGMENT
$pdata$0$zip64local_SearchCentralDir DD imagerel zip64local_SearchCentralDir+99
	DD	imagerel zip64local_SearchCentralDir+119
	DD	imagerel $chain$0$zip64local_SearchCentralDir
pdata	ENDS
;	COMDAT pdata
pdata	SEGMENT
$pdata$1$zip64local_SearchCentralDir DD imagerel zip64local_SearchCentralDir+119
	DD	imagerel zip64local_SearchCentralDir+309
	DD	imagerel $chain$1$zip64local_SearchCentralDir
pdata	ENDS
;	COMDAT pdata
pdata	SEGMENT
$pdata$2$zip64local_SearchCentralDir DD imagerel zip64local_SearchCentralDir+309
	DD	imagerel zip64local_SearchCentralDir+343
	DD	imagerel $chain$2$zip64local_SearchCentralDir
pdata	ENDS
;	COMDAT pdata
pdata	SEGMENT
$pdata$3$zip64local_SearchCentralDir DD imagerel zip64local_SearchCentralDir+343
	DD	imagerel zip64local_SearchCentralDir+362
	DD	imagerel $chain$3$zip64local_SearchCentralDir
pdata	ENDS
;	COMDAT pdata
pdata	SEGMENT
$pdata$zip64local_getLong64 DD imagerel zip64local_getLong64
	DD	imagerel zip64local_getLong64+369
	DD	imagerel $unwind$zip64local_getLong64
pdata	ENDS
;	COMDAT pdata
pdata	SEGMENT
$pdata$zip64local_getLong DD imagerel zip64local_getLong
	DD	imagerel zip64local_getLong+205
	DD	imagerel $unwind$zip64local_getLong
pdata	ENDS
;	COMDAT pdata
pdata	SEGMENT
$pdata$zip64local_getShort DD imagerel zip64local_getShort
	DD	imagerel zip64local_getShort+124
	DD	imagerel $unwind$zip64local_getShort
pdata	ENDS
;	COMDAT pdata
pdata	SEGMENT
$pdata$zip64local_getByte DD imagerel zip64local_getByte
	DD	imagerel zip64local_getByte+102
	DD	imagerel $unwind$zip64local_getByte
pdata	ENDS
;	COMDAT pdata
pdata	SEGMENT
$pdata$zip64local_putValue DD imagerel zip64local_putValue
	DD	imagerel zip64local_putValue+114
	DD	imagerel $unwind$zip64local_putValue
pdata	ENDS
;	COMDAT pdata
pdata	SEGMENT
$pdata$add_data_in_datablock DD imagerel add_data_in_datablock
	DD	imagerel add_data_in_datablock+223
	DD	imagerel $unwind$add_data_in_datablock
pdata	ENDS
;	COMDAT pdata
pdata	SEGMENT
$pdata$free_linkedlist DD imagerel free_linkedlist
	DD	imagerel free_linkedlist+32
	DD	imagerel $unwind$free_linkedlist
pdata	ENDS
;	COMDAT pdata
pdata	SEGMENT
$pdata$free_datablock DD imagerel free_datablock
	DD	imagerel free_datablock+9
	DD	imagerel $unwind$free_datablock
pdata	ENDS
;	COMDAT pdata
pdata	SEGMENT
$pdata$0$free_datablock DD imagerel free_datablock+9
	DD	imagerel free_datablock+38
	DD	imagerel $chain$0$free_datablock
pdata	ENDS
;	COMDAT pdata
pdata	SEGMENT
$pdata$1$free_datablock DD imagerel free_datablock+38
	DD	imagerel free_datablock+43
	DD	imagerel $chain$1$free_datablock
pdata	ENDS
;	COMDAT pdata
pdata	SEGMENT
$pdata$allocate_new_datablock DD imagerel allocate_new_datablock
	DD	imagerel allocate_new_datablock+38
	DD	imagerel $unwind$allocate_new_datablock
pdata	ENDS
;	COMDAT pdata
pdata	SEGMENT
$pdata$crypthead DD imagerel crypthead
	DD	imagerel crypthead+322
	DD	imagerel $unwind$crypthead
pdata	ENDS
;	COMDAT pdata
pdata	SEGMENT
$pdata$init_keys DD imagerel init_keys
	DD	imagerel init_keys+107
	DD	imagerel $unwind$init_keys
pdata	ENDS
;	COMDAT xdata
xdata	SEGMENT
$unwind$init_keys DQ 00007640f00060f01r		; 1.02782e-308
	DQ	0700b320f0006340fr		; 5.2777e+231
xdata	ENDS
;	COMDAT xdata
xdata	SEGMENT
$unwind$crypthead DQ 0000d741e000c1e01r		; 1.87095e-308
	DQ	0000b541e000c641er		; 1.57543e-308
	DQ	0f01a521e000a341er		; -1.02159e+232
	DD	0d016e018H
xdata	ENDS
;	COMDAT xdata
xdata	SEGMENT
$unwind$allocate_new_datablock DQ 00000420400010401r ; 3.58617e-310
xdata	ENDS
;	COMDAT xdata
xdata	SEGMENT
$chain$1$free_datablock DD 021H
	DD	imagerel free_datablock
	DD	imagerel free_datablock+9
	DD	imagerel $unwind$free_datablock
xdata	ENDS
;	COMDAT xdata
xdata	SEGMENT
$chain$0$free_datablock DQ 00004340500020521r	; 5.84527e-309
	DD	imagerel free_datablock
	DD	imagerel free_datablock+9
	DD	imagerel $unwind$free_datablock
xdata	ENDS
;	COMDAT xdata
xdata	SEGMENT
$unwind$free_datablock DQ 00000420400010401r	; 3.58617e-310
xdata	ENDS
;	COMDAT xdata
xdata	SEGMENT
$unwind$free_linkedlist DQ 03002320600020601r	; 1.96423e-77
xdata	ENDS
;	COMDAT xdata
xdata	SEGMENT
$unwind$add_data_in_datablock DQ 00008641400081401r ; 1.1669e-308
	DQ	00006341400075414r		; 8.62693e-309
	DD	070103214H
xdata	ENDS
;	COMDAT xdata
xdata	SEGMENT
$unwind$zip64local_putValue DQ 00008640f00060f01r ; 1.16689e-308
	DQ	0700b320f0007340fr		; 5.2777e+231
xdata	ENDS
;	COMDAT xdata
xdata	SEGMENT
$unwind$zip64local_getByte DQ 00008640f00060f01r ; 1.16689e-308
	DQ	0700b320f0007340fr		; 5.2777e+231
xdata	ENDS
;	COMDAT xdata
xdata	SEGMENT
$unwind$zip64local_getShort DQ 00008641400081401r ; 1.1669e-308
	DQ	00006341400075414r		; 8.62693e-309
	DD	070103214H
xdata	ENDS
;	COMDAT xdata
xdata	SEGMENT
$unwind$zip64local_getLong DQ 00008741500081501r ; 1.1756e-308
	DQ	00006341500076415r		; 8.62695e-309
	DD	0e0113215H
xdata	ENDS
;	COMDAT xdata
xdata	SEGMENT
$unwind$zip64local_getLong64 DQ 00008741500081501r ; 1.1756e-308
	DQ	00006341500076415r		; 8.62695e-309
	DD	0e0113215H
xdata	ENDS
;	COMDAT xdata
xdata	SEGMENT
$chain$3$zip64local_SearchCentralDir DD 021H
	DD	imagerel zip64local_SearchCentralDir
	DD	imagerel zip64local_SearchCentralDir+99
	DD	imagerel $unwind$zip64local_SearchCentralDir
xdata	ENDS
;	COMDAT xdata
xdata	SEGMENT
$chain$2$zip64local_SearchCentralDir DD 021H
	DD	imagerel zip64local_SearchCentralDir+99
	DD	imagerel zip64local_SearchCentralDir+119
	DD	imagerel $chain$0$zip64local_SearchCentralDir
xdata	ENDS
;	COMDAT xdata
xdata	SEGMENT
$chain$1$zip64local_SearchCentralDir DQ 0000ac40500020521r ; 1.49716e-308
	DD	imagerel zip64local_SearchCentralDir+99
	DD	imagerel zip64local_SearchCentralDir+119
	DD	imagerel $chain$0$zip64local_SearchCentralDir
xdata	ENDS
;	COMDAT xdata
xdata	SEGMENT
$chain$0$zip64local_SearchCentralDir DQ 0000be40500020521r ; 1.65361e-308
	DD	imagerel zip64local_SearchCentralDir
	DD	imagerel zip64local_SearchCentralDir+99
	DD	imagerel $unwind$zip64local_SearchCentralDir
xdata	ENDS
;	COMDAT xdata
xdata	SEGMENT
$unwind$zip64local_SearchCentralDir DQ 0000d341000081001r ; 1.83615e-308
	DQ	07008d00af00c3210r		; 4.81526e+231
	DD	050066007H
xdata	ENDS
;	COMDAT xdata
xdata	SEGMENT
$chain$3$zip64local_SearchCentralDir64 DD 021H
	DD	imagerel zip64local_SearchCentralDir64
	DD	imagerel zip64local_SearchCentralDir64+97
	DD	imagerel $unwind$zip64local_SearchCentralDir64
xdata	ENDS
;	COMDAT xdata
xdata	SEGMENT
$chain$2$zip64local_SearchCentralDir64 DD 021H
	DD	imagerel zip64local_SearchCentralDir64+97
	DD	imagerel zip64local_SearchCentralDir64+117
	DD	imagerel $chain$0$zip64local_SearchCentralDir64
xdata	ENDS
;	COMDAT xdata
xdata	SEGMENT
$chain$1$zip64local_SearchCentralDir64 DQ 0000cc40500020521r ; 1.77529e-308
	DD	imagerel zip64local_SearchCentralDir64+97
	DD	imagerel zip64local_SearchCentralDir64+117
	DD	imagerel $chain$0$zip64local_SearchCentralDir64
xdata	ENDS
;	COMDAT xdata
xdata	SEGMENT
$chain$0$zip64local_SearchCentralDir64 DQ 00004d40500020521r ; 6.71444e-309
	DD	imagerel zip64local_SearchCentralDir64
	DD	imagerel zip64local_SearchCentralDir64+97
	DD	imagerel $unwind$zip64local_SearchCentralDir64
xdata	ENDS
;	COMDAT xdata
xdata	SEGMENT
$unwind$zip64local_SearchCentralDir64 DQ 0f009420d00070d01r ; -4.90169e+231
	DQ	0500360047005e007r		; 2.80435e+77
	DD	03002H
xdata	ENDS
;	COMDAT xdata
xdata	SEGMENT
$unwind$LoadCentralDirectoryRecord DQ 0f00d621400091401r ; -5.70223e+231
	DQ	07005c007d009e00br		; 4.22093e+231
	DQ	00000500230036004r		; 4.34631e-310
xdata	ENDS
;	COMDAT xdata
xdata	SEGMENT
$unwind$zipOpen3 DQ 02037e42a000b2a01r		; 1.78189e-153
	DQ	02035642a2036742ar		; 1.59543e-153
	DQ	02032012a2034342ar		; 1.34284e-153
	DD	05015H
xdata	ENDS
;	COMDAT xdata
xdata	SEGMENT
$unwind$zipOpen2 DQ 03002f20900020901r		; 2.0452e-77
xdata	ENDS
;	COMDAT xdata
xdata	SEGMENT
$unwind$zipOpen2_64 DQ 00011010700020701r	; 2.3647e-308
xdata	ENDS
;	COMDAT xdata
xdata	SEGMENT
$unwind$Write_LocalFileHeader DQ 000085444000a4401r ; 1.15831e-308
	DQ	000093413000a6413r		; 1.27989e-308
	DQ	0700be00df00f3213r		; 5.4096e+231
xdata	ENDS
;	COMDAT xdata
xdata	SEGMENT
$chain$8$zipOpenNewFileInZip4_64 DD 021H
	DD	imagerel $LN69@zipOpenNew
	DD	imagerel $LN69@zipOpenNew+73
	DD	imagerel $unwind$zipOpenNewFileInZip4_64
xdata	ENDS
;	COMDAT xdata
xdata	SEGMENT
$chain$7$zipOpenNewFileInZip4_64 DQ 0000af40000040021r ; 1.52322e-308
	DD	0c6400H
	DD	imagerel $LN69@zipOpenNew
	DD	imagerel $LN69@zipOpenNew+73
	DD	imagerel $unwind$zipOpenNewFileInZip4_64
xdata	ENDS
;	COMDAT xdata
xdata	SEGMENT
$chain$6$zipOpenNewFileInZip4_64 DD 021H
	DD	imagerel $LN69@zipOpenNew
	DD	imagerel $LN69@zipOpenNew+73
	DD	imagerel $unwind$zipOpenNewFileInZip4_64
xdata	ENDS
;	COMDAT xdata
xdata	SEGMENT
$chain$5$zipOpenNewFileInZip4_64 DQ 0000af40000040021r ; 1.52322e-308
	DD	0c6400H
	DD	imagerel $LN69@zipOpenNew
	DD	imagerel $LN69@zipOpenNew+73
	DD	imagerel $unwind$zipOpenNewFileInZip4_64
xdata	ENDS
;	COMDAT xdata
xdata	SEGMENT
$chain$4$zipOpenNewFileInZip4_64 DQ 0000af40000060021r ; 1.52322e-308
	DQ	0000c6400000bc400r		; 1.72313e-308
	DD	imagerel $LN69@zipOpenNew
	DD	imagerel $LN69@zipOpenNew+73
	DD	imagerel $unwind$zipOpenNewFileInZip4_64
xdata	ENDS
;	COMDAT xdata
xdata	SEGMENT
$chain$3$zipOpenNewFileInZip4_64 DQ 0000af41a00081a21r ; 1.52327e-308
	DQ	0000c6410000bc415r		; 1.72316e-308
	DD	0135408H
	DD	imagerel $LN69@zipOpenNew
	DD	imagerel $LN69@zipOpenNew+73
	DD	imagerel $unwind$zipOpenNewFileInZip4_64
xdata	ENDS
;	COMDAT xdata
xdata	SEGMENT
$unwind$zipOpenNewFileInZip4_64 DQ 0e00bc20f00050f01r ; -4.65218e+154
	DQ	0000030067007d009r		; 2.60887e-310
xdata	ENDS
;	COMDAT xdata
xdata	SEGMENT
$unwind$zipOpenNewFileInZip3 DQ 00015010a00020a01r ; 2.92097e-308
xdata	ENDS
;	COMDAT xdata
xdata	SEGMENT
$unwind$zipOpenNewFileInZip3_64 DQ 00015010a00020a01r ; 2.92097e-308
xdata	ENDS
;	COMDAT xdata
xdata	SEGMENT
$unwind$zipOpenNewFileInZip2 DQ 00015010a00020a01r ; 2.92097e-308
xdata	ENDS
;	COMDAT xdata
xdata	SEGMENT
$unwind$zipOpenNewFileInZip2_64 DQ 00015010a00020a01r ; 2.92097e-308
xdata	ENDS
;	COMDAT xdata
xdata	SEGMENT
$unwind$zipOpenNewFileInZip64 DQ 00015010a00020a01r ; 2.92097e-308
xdata	ENDS
;	COMDAT xdata
xdata	SEGMENT
$unwind$zipOpenNewFileInZip DQ 00015010a00020a01r ; 2.92097e-308
xdata	ENDS
;	COMDAT xdata
xdata	SEGMENT
$chain$4$zip64FlushWriteBuffer DD 021H
	DD	imagerel zip64FlushWriteBuffer
	DD	imagerel zip64FlushWriteBuffer+22
	DD	imagerel $unwind$zip64FlushWriteBuffer
xdata	ENDS
;	COMDAT xdata
xdata	SEGMENT
$chain$3$zip64FlushWriteBuffer DD 021H
	DD	imagerel zip64FlushWriteBuffer+22
	DD	imagerel zip64FlushWriteBuffer+37
	DD	imagerel $chain$0$zip64FlushWriteBuffer
xdata	ENDS
;	COMDAT xdata
xdata	SEGMENT
$chain$2$zip64FlushWriteBuffer DQ 00008e40a00040a21r ; 1.23641e-308
	DD	076405H
	DD	imagerel zip64FlushWriteBuffer+22
	DD	imagerel zip64FlushWriteBuffer+37
	DD	imagerel $chain$0$zip64FlushWriteBuffer
xdata	ENDS
;	COMDAT xdata
xdata	SEGMENT
$chain$0$zip64FlushWriteBuffer DQ 00006540500020521r ; 8.80045e-309
	DD	imagerel zip64FlushWriteBuffer
	DD	imagerel zip64FlushWriteBuffer+22
	DD	imagerel $unwind$zip64FlushWriteBuffer
xdata	ENDS
;	COMDAT xdata
xdata	SEGMENT
$unwind$zip64FlushWriteBuffer DQ 00009340a00040a01r ; 1.27987e-308
	DD	07006320aH
xdata	ENDS
;	COMDAT xdata
xdata	SEGMENT
$chain$3$zipWriteInFileInZip DD 021H
	DD	imagerel $LN30@zipWriteIn
	DD	imagerel $LN30@zipWriteIn+55
	DD	imagerel $unwind$zipWriteInFileInZip
xdata	ENDS
;	COMDAT xdata
xdata	SEGMENT
$chain$2$zipWriteInFileInZip DQ 00006e40000020021r ; 9.58259e-309
	DD	imagerel $LN30@zipWriteIn
	DD	imagerel $LN30@zipWriteIn+55
	DD	imagerel $unwind$zipWriteInFileInZip
xdata	ENDS
;	COMDAT xdata
xdata	SEGMENT
$chain$0$zipWriteInFileInZip DQ 00006e40500020521r ; 9.5827e-309
	DD	imagerel $LN30@zipWriteIn
	DD	imagerel $LN30@zipWriteIn+55
	DD	imagerel $unwind$zipWriteInFileInZip
xdata	ENDS
;	COMDAT xdata
xdata	SEGMENT
$unwind$zipWriteInFileInZip DQ 00009641400081401r ; 1.30597e-308
	DQ	00007341400085414r		; 1.00176e-308
	DD	070103214H
xdata	ENDS
;	COMDAT xdata
xdata	SEGMENT
$chain$6$zipCloseFileInZipRaw64 DD 021H
	DD	imagerel $LN63@zipCloseFi
	DD	imagerel $LN63@zipCloseFi+52
	DD	imagerel $unwind$zipCloseFileInZipRaw64
xdata	ENDS
;	COMDAT xdata
xdata	SEGMENT
$chain$5$zipCloseFileInZipRaw64 DQ 00004d40000080021r ; 6.71433e-309
	DQ	0000b6400000c7400r		; 1.58406e-308
	DD	0a5400H
	DD	imagerel $LN63@zipCloseFi
	DD	imagerel $LN63@zipCloseFi+52
	DD	imagerel $unwind$zipCloseFileInZipRaw64
xdata	ENDS
;	COMDAT xdata
xdata	SEGMENT
$chain$3$zipCloseFileInZipRaw64 DQ 00004d41400081421r ; 6.71476e-309
	DQ	0000b640a000c740fr		; 1.58408e-308
	DD	0a5405H
	DD	imagerel $LN63@zipCloseFi
	DD	imagerel $LN63@zipCloseFi+52
	DD	imagerel $unwind$zipCloseFileInZipRaw64
xdata	ENDS
;	COMDAT xdata
xdata	SEGMENT
$unwind$zipCloseFileInZipRaw64 DQ 0f008420c00050c01r ; -4.70762e+231
	DQ	000003002c004e006r		; 2.60809e-310
xdata	ENDS
;	COMDAT xdata
xdata	SEGMENT
$unwind$Write_Zip64EndOfCentralDirectoryLocator DQ 00006340a00040a01r ; 8.62672e-309
	DD	07006320aH
xdata	ENDS
;	COMDAT xdata
xdata	SEGMENT
$unwind$Write_Zip64EndOfCentralDirectoryRecord DQ 00007640f00060f01r ; 1.02782e-308
	DQ	0700b320f0006340fr		; 5.2777e+231
xdata	ENDS
;	COMDAT xdata
xdata	SEGMENT
$chain$1$Write_EndOfCentralDirectoryRecord DD 021H
	DD	imagerel $LN24@Write_EndO
	DD	imagerel $LN24@Write_EndO+113
	DD	imagerel $unwind$Write_EndOfCentralDirectoryRecord
xdata	ENDS
;	COMDAT xdata
xdata	SEGMENT
$chain$0$Write_EndOfCentralDirectoryRecord DQ 00006740500020521r ; 8.97428e-309
	DD	imagerel $LN24@Write_EndO
	DD	imagerel $LN24@Write_EndO+113
	DD	imagerel $unwind$Write_EndOfCentralDirectoryRecord
xdata	ENDS
;	COMDAT xdata
xdata	SEGMENT
$unwind$Write_EndOfCentralDirectoryRecord DQ 00008540f00060f01r ; 1.1582e-308
	DQ	0600b320f0007340fr		; 4.55791e+154
xdata	ENDS
;	COMDAT xdata
xdata	SEGMENT
$unwind$Write_GlobalComment DQ 00009741a000a1a01r ; 1.31467e-308
	DQ	00007541a0008641ar		; 1.01916e-308
	DQ	0e016321a0006341ar		; -7.4399e+154
xdata	ENDS
;	COMDAT xdata
xdata	SEGMENT
$chain$5$zipClose DD 021H
	DD	imagerel $LN26@zipClose
	DD	imagerel $LN26@zipClose+49
	DD	imagerel $unwind$zipClose
xdata	ENDS
;	COMDAT xdata
xdata	SEGMENT
$chain$4$zipClose DD 021H
	DD	imagerel $LN26@zipClose+49
	DD	imagerel $LN26@zipClose+54
	DD	imagerel $chain$0$zipClose
xdata	ENDS
;	COMDAT xdata
xdata	SEGMENT
$chain$3$zipClose DD 021H
	DD	imagerel $LN26@zipClose+54
	DD	imagerel $LN26@zipClose+87
	DD	imagerel $chain$1$zipClose
xdata	ENDS
;	COMDAT xdata
xdata	SEGMENT
$chain$2$zipClose DQ 00008340500020521r		; 1.1408e-308
	DD	imagerel $LN26@zipClose+54
	DD	imagerel $LN26@zipClose+87
	DD	imagerel $chain$1$zipClose
xdata	ENDS
;	COMDAT xdata
xdata	SEGMENT
$chain$1$zipClose DQ 0000af40500020521r		; 1.52323e-308
	DD	imagerel $LN26@zipClose+49
	DD	imagerel $LN26@zipClose+54
	DD	imagerel $chain$0$zipClose
xdata	ENDS
;	COMDAT xdata
xdata	SEGMENT
$chain$0$zipClose DQ 00009c40500020521r		; 1.35809e-308
	DD	imagerel $LN26@zipClose
	DD	imagerel $LN26@zipClose+49
	DD	imagerel $unwind$zipClose
xdata	ENDS
;	COMDAT xdata
xdata	SEGMENT
$unwind$zipClose DQ 0000b540d00060d01r		; 1.5754e-308
	DQ	060067007e009320dr		; 3.76049e+154
END
